
CAN_tempsens.elf:     file format elf32-littlearm

Sections:
Idx Name          Size      VMA       LMA       File off  Algn
  0 .isr_vector   000001d8  08000000  08000000  00010000  2**0
                  CONTENTS, ALLOC, LOAD, READONLY, DATA
  1 .text         0000184c  080001d8  080001d8  000101d8  2**2
                  CONTENTS, ALLOC, LOAD, READONLY, CODE
  2 .rodata       00000034  08001a24  08001a24  00011a24  2**1
                  CONTENTS, ALLOC, LOAD, READONLY, DATA
  3 .ARM.extab    00000000  08001a58  08001a58  0002000c  2**0
                  CONTENTS
  4 .ARM          00000000  08001a58  08001a58  0002000c  2**0
                  CONTENTS
  5 .preinit_array 00000000  08001a58  08001a58  0002000c  2**0
                  CONTENTS, ALLOC, LOAD, DATA
  6 .init_array   00000004  08001a58  08001a58  00011a58  2**2
                  CONTENTS, ALLOC, LOAD, DATA
  7 .fini_array   00000004  08001a5c  08001a5c  00011a5c  2**2
                  CONTENTS, ALLOC, LOAD, DATA
  8 .data         0000000c  20000000  08001a60  00020000  2**2
                  CONTENTS, ALLOC, LOAD, DATA
  9 .bss          000000e8  2000000c  08001a6c  0002000c  2**2
                  ALLOC
 10 ._user_heap_stack 00000604  200000f4  08001a6c  000200f4  2**0
                  ALLOC
 11 .ARM.attributes 00000030  00000000  00000000  0002000c  2**0
                  CONTENTS, READONLY
 12 .comment      0000007b  00000000  00000000  0002003c  2**0
                  CONTENTS, READONLY
 13 .debug_frame  0000004c  00000000  00000000  000200b8  2**2
                  CONTENTS, READONLY, DEBUGGING

Disassembly of section .text:

080001d8 <__do_global_dtors_aux>:
 80001d8:	b510      	push	{r4, lr}
 80001da:	4c05      	ldr	r4, [pc, #20]	; (80001f0 <__do_global_dtors_aux+0x18>)
 80001dc:	7823      	ldrb	r3, [r4, #0]
 80001de:	b933      	cbnz	r3, 80001ee <__do_global_dtors_aux+0x16>
 80001e0:	4b04      	ldr	r3, [pc, #16]	; (80001f4 <__do_global_dtors_aux+0x1c>)
 80001e2:	b113      	cbz	r3, 80001ea <__do_global_dtors_aux+0x12>
 80001e4:	4804      	ldr	r0, [pc, #16]	; (80001f8 <__do_global_dtors_aux+0x20>)
 80001e6:	f3af 8000 	nop.w
 80001ea:	2301      	movs	r3, #1
 80001ec:	7023      	strb	r3, [r4, #0]
 80001ee:	bd10      	pop	{r4, pc}
 80001f0:	2000000c 	.word	0x2000000c
 80001f4:	00000000 	.word	0x00000000
 80001f8:	08001a0c 	.word	0x08001a0c

080001fc <frame_dummy>:
 80001fc:	b508      	push	{r3, lr}
 80001fe:	4b03      	ldr	r3, [pc, #12]	; (800020c <frame_dummy+0x10>)
 8000200:	b11b      	cbz	r3, 800020a <frame_dummy+0xe>
 8000202:	4903      	ldr	r1, [pc, #12]	; (8000210 <frame_dummy+0x14>)
 8000204:	4803      	ldr	r0, [pc, #12]	; (8000214 <frame_dummy+0x18>)
 8000206:	f3af 8000 	nop.w
 800020a:	bd08      	pop	{r3, pc}
 800020c:	00000000 	.word	0x00000000
 8000210:	20000010 	.word	0x20000010
 8000214:	08001a0c 	.word	0x08001a0c

08000218 <display_digit>:
 8000218:	b5f0      	push	{r4, r5, r6, r7, lr}
 800021a:	4b10      	ldr	r3, [pc, #64]	; (800025c <display_digit+0x44>)
 800021c:	b087      	sub	sp, #28
 800021e:	4605      	mov	r5, r0
 8000220:	460e      	mov	r6, r1
 8000222:	aa01      	add	r2, sp, #4
 8000224:	f103 0710 	add.w	r7, r3, #16
 8000228:	6818      	ldr	r0, [r3, #0]
 800022a:	6859      	ldr	r1, [r3, #4]
 800022c:	4614      	mov	r4, r2
 800022e:	c403      	stmia	r4!, {r0, r1}
 8000230:	3308      	adds	r3, #8
 8000232:	42bb      	cmp	r3, r7
 8000234:	4622      	mov	r2, r4
 8000236:	d1f7      	bne.n	8000228 <display_digit+0x10>
 8000238:	a906      	add	r1, sp, #24
 800023a:	4a09      	ldr	r2, [pc, #36]	; (8000260 <display_digit+0x48>)
 800023c:	6818      	ldr	r0, [r3, #0]
 800023e:	6020      	str	r0, [r4, #0]
 8000240:	eb01 0545 	add.w	r5, r1, r5, lsl #1
 8000244:	6953      	ldr	r3, [r2, #20]
 8000246:	f835 1c14 	ldrh.w	r1, [r5, #-20]
 800024a:	b2db      	uxtb	r3, r3
 800024c:	430b      	orrs	r3, r1
 800024e:	b10e      	cbz	r6, 8000254 <display_digit+0x3c>
 8000250:	f443 4300 	orr.w	r3, r3, #32768	; 0x8000
 8000254:	6153      	str	r3, [r2, #20]
 8000256:	b007      	add	sp, #28
 8000258:	bdf0      	pop	{r4, r5, r6, r7, pc}
 800025a:	bf00      	nop
 800025c:	08001a24 	.word	0x08001a24
 8000260:	48000400 	.word	0x48000400

08000264 <display_number>:
 8000264:	b570      	push	{r4, r5, r6, lr}
 8000266:	f04f 4690 	mov.w	r6, #1207959552	; 0x48000000
 800026a:	4604      	mov	r4, r0
 800026c:	6973      	ldr	r3, [r6, #20]
 800026e:	230a      	movs	r3, #10
 8000270:	2100      	movs	r1, #0
 8000272:	fbb0 f0f3 	udiv	r0, r0, r3
 8000276:	fb03 4010 	mls	r0, r3, r0, r4
 800027a:	4615      	mov	r5, r2
 800027c:	6171      	str	r1, [r6, #20]
 800027e:	b2c0      	uxtb	r0, r0
 8000280:	f7ff ffca 	bl	8000218 <display_digit>
 8000284:	2d01      	cmp	r5, #1
 8000286:	4630      	mov	r0, r6
 8000288:	f04f 4690 	mov.w	r6, #1207959552	; 0x48000000
 800028c:	bf07      	ittee	eq
 800028e:	462a      	moveq	r2, r5
 8000290:	2104      	moveq	r1, #4
 8000292:	2201      	movne	r2, #1
 8000294:	2108      	movne	r1, #8
 8000296:	f000 fe69 	bl	8000f6c <HAL_GPIO_WritePin>
 800029a:	6973      	ldr	r3, [r6, #20]
 800029c:	230a      	movs	r3, #10
 800029e:	2100      	movs	r1, #0
 80002a0:	fbb4 f2f3 	udiv	r2, r4, r3
 80002a4:	fbb2 f0f3 	udiv	r0, r2, r3
 80002a8:	fb03 2010 	mls	r0, r3, r0, r2
 80002ac:	6171      	str	r1, [r6, #20]
 80002ae:	b2c0      	uxtb	r0, r0
 80002b0:	f7ff ffb2 	bl	8000218 <display_digit>
 80002b4:	2d01      	cmp	r5, #1
 80002b6:	4630      	mov	r0, r6
 80002b8:	f04f 4690 	mov.w	r6, #1207959552	; 0x48000000
 80002bc:	bf07      	ittee	eq
 80002be:	462a      	moveq	r2, r5
 80002c0:	2102      	moveq	r1, #2
 80002c2:	2201      	movne	r2, #1
 80002c4:	2110      	movne	r1, #16
 80002c6:	f000 fe51 	bl	8000f6c <HAL_GPIO_WritePin>
 80002ca:	6973      	ldr	r3, [r6, #20]
 80002cc:	230a      	movs	r3, #10
 80002ce:	2100      	movs	r1, #0
 80002d0:	2064      	movs	r0, #100	; 0x64
 80002d2:	fbb4 f4f0 	udiv	r4, r4, r0
 80002d6:	fbb4 f0f3 	udiv	r0, r4, r3
 80002da:	fb03 4010 	mls	r0, r3, r0, r4
 80002de:	6171      	str	r1, [r6, #20]
 80002e0:	b2c0      	uxtb	r0, r0
 80002e2:	f7ff ff99 	bl	8000218 <display_digit>
 80002e6:	2d01      	cmp	r5, #1
 80002e8:	bf08      	it	eq
 80002ea:	462a      	moveq	r2, r5
 80002ec:	4630      	mov	r0, r6
 80002ee:	bf0e      	itee	eq
 80002f0:	4611      	moveq	r1, r2
 80002f2:	2201      	movne	r2, #1
 80002f4:	2120      	movne	r1, #32
 80002f6:	e8bd 4070 	ldmia.w	sp!, {r4, r5, r6, lr}
 80002fa:	f000 be37 	b.w	8000f6c <HAL_GPIO_WritePin>
	...

08000300 <HAL2_Delay>:
 8000300:	b5f8      	push	{r3, r4, r5, r6, r7, lr}
 8000302:	4604      	mov	r4, r0
 8000304:	f000 fa2e 	bl	8000764 <HAL_GetTick>
 8000308:	1c63      	adds	r3, r4, #1
 800030a:	4605      	mov	r5, r0
 800030c:	d002      	beq.n	8000314 <HAL2_Delay+0x14>
 800030e:	4b0b      	ldr	r3, [pc, #44]	; (800033c <HAL2_Delay+0x3c>)
 8000310:	681b      	ldr	r3, [r3, #0]
 8000312:	441c      	add	r4, r3
 8000314:	4e0a      	ldr	r6, [pc, #40]	; (8000340 <HAL2_Delay+0x40>)
 8000316:	4f0b      	ldr	r7, [pc, #44]	; (8000344 <HAL2_Delay+0x44>)
 8000318:	e009      	b.n	800032e <HAL2_Delay+0x2e>
 800031a:	2201      	movs	r2, #1
 800031c:	2100      	movs	r1, #0
 800031e:	8830      	ldrh	r0, [r6, #0]
 8000320:	f7ff ffa0 	bl	8000264 <display_number>
 8000324:	2200      	movs	r2, #0
 8000326:	4611      	mov	r1, r2
 8000328:	8838      	ldrh	r0, [r7, #0]
 800032a:	f7ff ff9b 	bl	8000264 <display_number>
 800032e:	f000 fa19 	bl	8000764 <HAL_GetTick>
 8000332:	1b40      	subs	r0, r0, r5
 8000334:	42a0      	cmp	r0, r4
 8000336:	d3f0      	bcc.n	800031a <HAL2_Delay+0x1a>
 8000338:	bdf8      	pop	{r3, r4, r5, r6, r7, pc}
 800033a:	bf00      	nop
 800033c:	20000004 	.word	0x20000004
 8000340:	2000002a 	.word	0x2000002a
 8000344:	20000028 	.word	0x20000028

08000348 <HAL_FDCAN_RxFifo0Callback>:
 8000348:	b570      	push	{r4, r5, r6, lr}
 800034a:	460c      	mov	r4, r1
 800034c:	4606      	mov	r6, r0
 800034e:	2140      	movs	r1, #64	; 0x40
 8000350:	f04f 4090 	mov.w	r0, #1207959552	; 0x48000000
 8000354:	f000 fe0f 	bl	8000f76 <HAL_GPIO_TogglePin>
 8000358:	07e3      	lsls	r3, r4, #31
 800035a:	d512      	bpl.n	8000382 <HAL_FDCAN_RxFifo0Callback+0x3a>
 800035c:	4d0e      	ldr	r5, [pc, #56]	; (8000398 <HAL_FDCAN_RxFifo0Callback+0x50>)
 800035e:	4c0f      	ldr	r4, [pc, #60]	; (800039c <HAL_FDCAN_RxFifo0Callback+0x54>)
 8000360:	462a      	mov	r2, r5
 8000362:	4623      	mov	r3, r4
 8000364:	2140      	movs	r1, #64	; 0x40
 8000366:	4630      	mov	r0, r6
 8000368:	f000 fba4 	bl	8000ab4 <HAL_FDCAN_GetRxMessage>
 800036c:	682b      	ldr	r3, [r5, #0]
 800036e:	4a0c      	ldr	r2, [pc, #48]	; (80003a0 <HAL_FDCAN_RxFifo0Callback+0x58>)
 8000370:	4293      	cmp	r3, r2
 8000372:	d107      	bne.n	8000384 <HAL_FDCAN_RxFifo0Callback+0x3c>
 8000374:	7822      	ldrb	r2, [r4, #0]
 8000376:	7863      	ldrb	r3, [r4, #1]
 8000378:	ea43 2302 	orr.w	r3, r3, r2, lsl #8
 800037c:	4a09      	ldr	r2, [pc, #36]	; (80003a4 <HAL_FDCAN_RxFifo0Callback+0x5c>)
 800037e:	09db      	lsrs	r3, r3, #7
 8000380:	8013      	strh	r3, [r2, #0]
 8000382:	bd70      	pop	{r4, r5, r6, pc}
 8000384:	4a08      	ldr	r2, [pc, #32]	; (80003a8 <HAL_FDCAN_RxFifo0Callback+0x60>)
 8000386:	4293      	cmp	r3, r2
 8000388:	d1fb      	bne.n	8000382 <HAL_FDCAN_RxFifo0Callback+0x3a>
 800038a:	7822      	ldrb	r2, [r4, #0]
 800038c:	7863      	ldrb	r3, [r4, #1]
 800038e:	ea43 2302 	orr.w	r3, r3, r2, lsl #8
 8000392:	09db      	lsrs	r3, r3, #7
 8000394:	4a05      	ldr	r2, [pc, #20]	; (80003ac <HAL_FDCAN_RxFifo0Callback+0x64>)
 8000396:	e7f3      	b.n	8000380 <HAL_FDCAN_RxFifo0Callback+0x38>
 8000398:	200000c8 	.word	0x200000c8
 800039c:	2000009c 	.word	0x2000009c
 80003a0:	14002101 	.word	0x14002101
 80003a4:	2000002a 	.word	0x2000002a
 80003a8:	14008201 	.word	0x14008201
 80003ac:	20000028 	.word	0x20000028

080003b0 <SystemClock_Config>:
 80003b0:	b510      	push	{r4, lr}
 80003b2:	b0a8      	sub	sp, #160	; 0xa0
 80003b4:	2238      	movs	r2, #56	; 0x38
 80003b6:	2100      	movs	r1, #0
 80003b8:	a805      	add	r0, sp, #20
 80003ba:	f001 fb1f 	bl	80019fc <memset>
 80003be:	2214      	movs	r2, #20
 80003c0:	2100      	movs	r1, #0
 80003c2:	4668      	mov	r0, sp
 80003c4:	f001 fb1a 	bl	80019fc <memset>
 80003c8:	2254      	movs	r2, #84	; 0x54
 80003ca:	2100      	movs	r1, #0
 80003cc:	a813      	add	r0, sp, #76	; 0x4c
 80003ce:	f001 fb15 	bl	80019fc <memset>
 80003d2:	f44f 7000 	mov.w	r0, #512	; 0x200
 80003d6:	f000 fdd7 	bl	8000f88 <HAL_PWREx_ControlVoltageScaling>
 80003da:	f44f 7180 	mov.w	r1, #256	; 0x100
 80003de:	2240      	movs	r2, #64	; 0x40
 80003e0:	2302      	movs	r3, #2
 80003e2:	e9cd 1208 	strd	r1, r2, [sp, #32]
 80003e6:	240f      	movs	r4, #15
 80003e8:	2206      	movs	r2, #6
 80003ea:	a805      	add	r0, sp, #20
 80003ec:	e9cd 2311 	strd	r2, r3, [sp, #68]	; 0x44
 80003f0:	9305      	str	r3, [sp, #20]
 80003f2:	e9cd 330c 	strd	r3, r3, [sp, #48]	; 0x30
 80003f6:	930e      	str	r3, [sp, #56]	; 0x38
 80003f8:	e9cd 430f 	strd	r4, r3, [sp, #60]	; 0x3c
 80003fc:	f000 fe26 	bl	800104c <HAL_RCC_OscConfig>
 8000400:	2100      	movs	r1, #0
 8000402:	2301      	movs	r3, #1
 8000404:	4668      	mov	r0, sp
 8000406:	e9cd 3101 	strd	r3, r1, [sp, #4]
 800040a:	e9cd 1103 	strd	r1, r1, [sp, #12]
 800040e:	9400      	str	r4, [sp, #0]
 8000410:	f001 f866 	bl	80014e0 <HAL_RCC_ClockConfig>
 8000414:	f44f 5380 	mov.w	r3, #4096	; 0x1000
 8000418:	9313      	str	r3, [sp, #76]	; 0x4c
 800041a:	a813      	add	r0, sp, #76	; 0x4c
 800041c:	f04f 7380 	mov.w	r3, #16777216	; 0x1000000
 8000420:	9321      	str	r3, [sp, #132]	; 0x84
 8000422:	f001 f951 	bl	80016c8 <HAL_RCCEx_PeriphCLKConfig>
 8000426:	b028      	add	sp, #160	; 0xa0
 8000428:	bd10      	pop	{r4, pc}
	...

0800042c <main>:
 800042c:	b500      	push	{lr}
 800042e:	b08b      	sub	sp, #44	; 0x2c
 8000430:	f000 f97c 	bl	800072c <HAL_Init>
 8000434:	f7ff ffbc 	bl	80003b0 <SystemClock_Config>
 8000438:	2214      	movs	r2, #20
 800043a:	2100      	movs	r1, #0
 800043c:	a804      	add	r0, sp, #16
 800043e:	f001 fadd 	bl	80019fc <memset>
 8000442:	4b54      	ldr	r3, [pc, #336]	; (8000594 <main+0x168>)
 8000444:	4854      	ldr	r0, [pc, #336]	; (8000598 <main+0x16c>)
 8000446:	6cda      	ldr	r2, [r3, #76]	; 0x4c
 8000448:	4d54      	ldr	r5, [pc, #336]	; (800059c <main+0x170>)
 800044a:	f042 0204 	orr.w	r2, r2, #4
 800044e:	64da      	str	r2, [r3, #76]	; 0x4c
 8000450:	6cda      	ldr	r2, [r3, #76]	; 0x4c
 8000452:	f002 0204 	and.w	r2, r2, #4
 8000456:	9201      	str	r2, [sp, #4]
 8000458:	9a01      	ldr	r2, [sp, #4]
 800045a:	6cda      	ldr	r2, [r3, #76]	; 0x4c
 800045c:	f042 0201 	orr.w	r2, r2, #1
 8000460:	64da      	str	r2, [r3, #76]	; 0x4c
 8000462:	6cda      	ldr	r2, [r3, #76]	; 0x4c
 8000464:	f002 0201 	and.w	r2, r2, #1
 8000468:	9202      	str	r2, [sp, #8]
 800046a:	9a02      	ldr	r2, [sp, #8]
 800046c:	6cda      	ldr	r2, [r3, #76]	; 0x4c
 800046e:	f042 0202 	orr.w	r2, r2, #2
 8000472:	64da      	str	r2, [r3, #76]	; 0x4c
 8000474:	6cdb      	ldr	r3, [r3, #76]	; 0x4c
 8000476:	f003 0302 	and.w	r3, r3, #2
 800047a:	9303      	str	r3, [sp, #12]
 800047c:	2200      	movs	r2, #0
 800047e:	f44f 41c0 	mov.w	r1, #24576	; 0x6000
 8000482:	9b03      	ldr	r3, [sp, #12]
 8000484:	f000 fd72 	bl	8000f6c <HAL_GPIO_WritePin>
 8000488:	2200      	movs	r2, #0
 800048a:	21df      	movs	r1, #223	; 0xdf
 800048c:	f04f 4090 	mov.w	r0, #1207959552	; 0x48000000
 8000490:	f000 fd6c 	bl	8000f6c <HAL_GPIO_WritePin>
 8000494:	2200      	movs	r2, #0
 8000496:	f44f 417f 	mov.w	r1, #65280	; 0xff00
 800049a:	4841      	ldr	r0, [pc, #260]	; (80005a0 <main+0x174>)
 800049c:	2400      	movs	r4, #0
 800049e:	f000 fd65 	bl	8000f6c <HAL_GPIO_WritePin>
 80004a2:	2601      	movs	r6, #1
 80004a4:	f44f 43c0 	mov.w	r3, #24576	; 0x6000
 80004a8:	a904      	add	r1, sp, #16
 80004aa:	483b      	ldr	r0, [pc, #236]	; (8000598 <main+0x16c>)
 80004ac:	e9cd 3604 	strd	r3, r6, [sp, #16]
 80004b0:	e9cd 4406 	strd	r4, r4, [sp, #24]
 80004b4:	f000 fc8e 	bl	8000dd4 <HAL_GPIO_Init>
 80004b8:	f44f 4300 	mov.w	r3, #32768	; 0x8000
 80004bc:	a904      	add	r1, sp, #16
 80004be:	4836      	ldr	r0, [pc, #216]	; (8000598 <main+0x16c>)
 80004c0:	9406      	str	r4, [sp, #24]
 80004c2:	e9cd 3404 	strd	r3, r4, [sp, #16]
 80004c6:	f000 fc85 	bl	8000dd4 <HAL_GPIO_Init>
 80004ca:	23df      	movs	r3, #223	; 0xdf
 80004cc:	a904      	add	r1, sp, #16
 80004ce:	f04f 4090 	mov.w	r0, #1207959552	; 0x48000000
 80004d2:	e9cd 3604 	strd	r3, r6, [sp, #16]
 80004d6:	e9cd 4406 	strd	r4, r4, [sp, #24]
 80004da:	f000 fc7b 	bl	8000dd4 <HAL_GPIO_Init>
 80004de:	2320      	movs	r3, #32
 80004e0:	a904      	add	r1, sp, #16
 80004e2:	f04f 4090 	mov.w	r0, #1207959552	; 0x48000000
 80004e6:	e9cd 3404 	strd	r3, r4, [sp, #16]
 80004ea:	9406      	str	r4, [sp, #24]
 80004ec:	f000 fc72 	bl	8000dd4 <HAL_GPIO_Init>
 80004f0:	f44f 437f 	mov.w	r3, #65280	; 0xff00
 80004f4:	a904      	add	r1, sp, #16
 80004f6:	482a      	ldr	r0, [pc, #168]	; (80005a0 <main+0x174>)
 80004f8:	e9cd 3604 	strd	r3, r6, [sp, #16]
 80004fc:	e9cd 4406 	strd	r4, r4, [sp, #24]
 8000500:	f000 fc68 	bl	8000dd4 <HAL_GPIO_Init>
 8000504:	f240 72ff 	movw	r2, #2047	; 0x7ff
 8000508:	9209      	str	r2, [sp, #36]	; 0x24
 800050a:	4a26      	ldr	r2, [pc, #152]	; (80005a4 <main+0x178>)
 800050c:	9407      	str	r4, [sp, #28]
 800050e:	2110      	movs	r1, #16
 8000510:	2005      	movs	r0, #5
 8000512:	2302      	movs	r3, #2
 8000514:	e9c5 0105 	strd	r0, r1, [r5, #20]
 8000518:	e9c5 0109 	strd	r0, r1, [r5, #36]	; 0x24
 800051c:	e9c5 2400 	strd	r2, r4, [r5]
 8000520:	4628      	mov	r0, r5
 8000522:	220d      	movs	r2, #13
 8000524:	e9c5 2307 	strd	r2, r3, [r5, #28]
 8000528:	e9c5 230b 	strd	r2, r3, [r5, #44]	; 0x2c
 800052c:	9306      	str	r3, [sp, #24]
 800052e:	e9cd 4404 	strd	r4, r4, [sp, #16]
 8000532:	9408      	str	r4, [sp, #32]
 8000534:	e9c5 4402 	strd	r4, r4, [r5, #8]
 8000538:	742c      	strb	r4, [r5, #16]
 800053a:	746c      	strb	r4, [r5, #17]
 800053c:	74ac      	strb	r4, [r5, #18]
 800053e:	e9c5 440d 	strd	r4, r4, [r5, #52]	; 0x34
 8000542:	63ec      	str	r4, [r5, #60]	; 0x3c
 8000544:	f000 f97e 	bl	8000844 <HAL_FDCAN_Init>
 8000548:	a904      	add	r1, sp, #16
 800054a:	4628      	mov	r0, r5
 800054c:	f000 fa74 	bl	8000a38 <HAL_FDCAN_ConfigFilter>
 8000550:	4622      	mov	r2, r4
 8000552:	4631      	mov	r1, r6
 8000554:	4628      	mov	r0, r5
 8000556:	f000 fb17 	bl	8000b88 <HAL_FDCAN_ActivateNotification>
 800055a:	4628      	mov	r0, r5
 800055c:	f000 fa94 	bl	8000a88 <HAL_FDCAN_Start>
 8000560:	4b11      	ldr	r3, [pc, #68]	; (80005a8 <main+0x17c>)
 8000562:	f06f 427a 	mvn.w	r2, #4194304000	; 0xfa000000
 8000566:	601a      	str	r2, [r3, #0]
 8000568:	f04f 4280 	mov.w	r2, #1073741824	; 0x40000000
 800056c:	e9c3 2401 	strd	r2, r4, [r3, #4]
 8000570:	f44f 3200 	mov.w	r2, #131072	; 0x20000
 8000574:	619c      	str	r4, [r3, #24]
 8000576:	60da      	str	r2, [r3, #12]
 8000578:	61dc      	str	r4, [r3, #28]
 800057a:	611c      	str	r4, [r3, #16]
 800057c:	621c      	str	r4, [r3, #32]
 800057e:	f44f 707a 	mov.w	r0, #1000	; 0x3e8
 8000582:	f7ff febd 	bl	8000300 <HAL2_Delay>
 8000586:	2180      	movs	r1, #128	; 0x80
 8000588:	f04f 4090 	mov.w	r0, #1207959552	; 0x48000000
 800058c:	f000 fcf3 	bl	8000f76 <HAL_GPIO_TogglePin>
 8000590:	e7f5      	b.n	800057e <main+0x152>
 8000592:	bf00      	nop
 8000594:	40021000 	.word	0x40021000
 8000598:	48000800 	.word	0x48000800
 800059c:	2000002c 	.word	0x2000002c
 80005a0:	48000400 	.word	0x48000400
 80005a4:	40006400 	.word	0x40006400
 80005a8:	200000a4 	.word	0x200000a4

080005ac <HAL_MspInit>:
 80005ac:	4b0b      	ldr	r3, [pc, #44]	; (80005dc <HAL_MspInit+0x30>)
 80005ae:	6e1a      	ldr	r2, [r3, #96]	; 0x60
 80005b0:	f042 0201 	orr.w	r2, r2, #1
 80005b4:	661a      	str	r2, [r3, #96]	; 0x60
 80005b6:	6e1a      	ldr	r2, [r3, #96]	; 0x60
 80005b8:	b082      	sub	sp, #8
 80005ba:	f002 0201 	and.w	r2, r2, #1
 80005be:	9200      	str	r2, [sp, #0]
 80005c0:	9a00      	ldr	r2, [sp, #0]
 80005c2:	6d9a      	ldr	r2, [r3, #88]	; 0x58
 80005c4:	f042 5280 	orr.w	r2, r2, #268435456	; 0x10000000
 80005c8:	659a      	str	r2, [r3, #88]	; 0x58
 80005ca:	6d9b      	ldr	r3, [r3, #88]	; 0x58
 80005cc:	f003 5380 	and.w	r3, r3, #268435456	; 0x10000000
 80005d0:	9301      	str	r3, [sp, #4]
 80005d2:	9b01      	ldr	r3, [sp, #4]
 80005d4:	b002      	add	sp, #8
 80005d6:	f000 bd31 	b.w	800103c <HAL_PWREx_DisableUCPDDeadBattery>
 80005da:	bf00      	nop
 80005dc:	40021000 	.word	0x40021000

080005e0 <HAL_FDCAN_MspInit>:
 80005e0:	b510      	push	{r4, lr}
 80005e2:	4604      	mov	r4, r0
 80005e4:	b088      	sub	sp, #32
 80005e6:	2214      	movs	r2, #20
 80005e8:	2100      	movs	r1, #0
 80005ea:	a803      	add	r0, sp, #12
 80005ec:	f001 fa06 	bl	80019fc <memset>
 80005f0:	6822      	ldr	r2, [r4, #0]
 80005f2:	4b16      	ldr	r3, [pc, #88]	; (800064c <HAL_FDCAN_MspInit+0x6c>)
 80005f4:	429a      	cmp	r2, r3
 80005f6:	d127      	bne.n	8000648 <HAL_FDCAN_MspInit+0x68>
 80005f8:	f503 33d6 	add.w	r3, r3, #109568	; 0x1ac00
 80005fc:	a903      	add	r1, sp, #12
 80005fe:	6d9a      	ldr	r2, [r3, #88]	; 0x58
 8000600:	f042 7200 	orr.w	r2, r2, #33554432	; 0x2000000
 8000604:	659a      	str	r2, [r3, #88]	; 0x58
 8000606:	6d9a      	ldr	r2, [r3, #88]	; 0x58
 8000608:	f002 7200 	and.w	r2, r2, #33554432	; 0x2000000
 800060c:	9201      	str	r2, [sp, #4]
 800060e:	9a01      	ldr	r2, [sp, #4]
 8000610:	6cda      	ldr	r2, [r3, #76]	; 0x4c
 8000612:	f042 0201 	orr.w	r2, r2, #1
 8000616:	64da      	str	r2, [r3, #76]	; 0x4c
 8000618:	6cdb      	ldr	r3, [r3, #76]	; 0x4c
 800061a:	f003 0301 	and.w	r3, r3, #1
 800061e:	9302      	str	r3, [sp, #8]
 8000620:	f44f 52c0 	mov.w	r2, #6144	; 0x1800
 8000624:	9b02      	ldr	r3, [sp, #8]
 8000626:	2302      	movs	r3, #2
 8000628:	e9cd 2303 	strd	r2, r3, [sp, #12]
 800062c:	f04f 4090 	mov.w	r0, #1207959552	; 0x48000000
 8000630:	2309      	movs	r3, #9
 8000632:	9307      	str	r3, [sp, #28]
 8000634:	f000 fbce 	bl	8000dd4 <HAL_GPIO_Init>
 8000638:	2200      	movs	r2, #0
 800063a:	2015      	movs	r0, #21
 800063c:	4611      	mov	r1, r2
 800063e:	f000 f8a9 	bl	8000794 <HAL_NVIC_SetPriority>
 8000642:	2015      	movs	r0, #21
 8000644:	f000 f8da 	bl	80007fc <HAL_NVIC_EnableIRQ>
 8000648:	b008      	add	sp, #32
 800064a:	bd10      	pop	{r4, pc}
 800064c:	40006400 	.word	0x40006400

08000650 <NMI_Handler>:
 8000650:	4770      	bx	lr

08000652 <HardFault_Handler>:
 8000652:	e7fe      	b.n	8000652 <HardFault_Handler>

08000654 <MemManage_Handler>:
 8000654:	e7fe      	b.n	8000654 <MemManage_Handler>

08000656 <BusFault_Handler>:
 8000656:	e7fe      	b.n	8000656 <BusFault_Handler>

08000658 <UsageFault_Handler>:
 8000658:	e7fe      	b.n	8000658 <UsageFault_Handler>

0800065a <SVC_Handler>:
 800065a:	4770      	bx	lr

0800065c <DebugMon_Handler>:
 800065c:	4770      	bx	lr

0800065e <PendSV_Handler>:
 800065e:	4770      	bx	lr

08000660 <SysTick_Handler>:
 8000660:	f000 b874 	b.w	800074c <HAL_IncTick>

08000664 <FDCAN1_IT0_IRQHandler>:
 8000664:	4801      	ldr	r0, [pc, #4]	; (800066c <FDCAN1_IT0_IRQHandler+0x8>)
 8000666:	f000 bb06 	b.w	8000c76 <HAL_FDCAN_IRQHandler>
 800066a:	bf00      	nop
 800066c:	2000002c 	.word	0x2000002c

08000670 <SystemInit>:
 8000670:	4b05      	ldr	r3, [pc, #20]	; (8000688 <SystemInit+0x18>)
 8000672:	f8d3 2088 	ldr.w	r2, [r3, #136]	; 0x88
 8000676:	f442 0270 	orr.w	r2, r2, #15728640	; 0xf00000
 800067a:	f8c3 2088 	str.w	r2, [r3, #136]	; 0x88
 800067e:	f04f 6200 	mov.w	r2, #134217728	; 0x8000000
 8000682:	609a      	str	r2, [r3, #8]
 8000684:	4770      	bx	lr
 8000686:	bf00      	nop
 8000688:	e000ed00 	.word	0xe000ed00

0800068c <Reset_Handler>:
 800068c:	480d      	ldr	r0, [pc, #52]	; (80006c4 <LoopForever+0x2>)
 800068e:	4685      	mov	sp, r0
 8000690:	480d      	ldr	r0, [pc, #52]	; (80006c8 <LoopForever+0x6>)
 8000692:	490e      	ldr	r1, [pc, #56]	; (80006cc <LoopForever+0xa>)
 8000694:	4a0e      	ldr	r2, [pc, #56]	; (80006d0 <LoopForever+0xe>)
 8000696:	2300      	movs	r3, #0
 8000698:	e002      	b.n	80006a0 <LoopCopyDataInit>

0800069a <CopyDataInit>:
 800069a:	58d4      	ldr	r4, [r2, r3]
 800069c:	50c4      	str	r4, [r0, r3]
 800069e:	3304      	adds	r3, #4

080006a0 <LoopCopyDataInit>:
 80006a0:	18c4      	adds	r4, r0, r3
 80006a2:	428c      	cmp	r4, r1
 80006a4:	d3f9      	bcc.n	800069a <CopyDataInit>
 80006a6:	4a0b      	ldr	r2, [pc, #44]	; (80006d4 <LoopForever+0x12>)
 80006a8:	4c0b      	ldr	r4, [pc, #44]	; (80006d8 <LoopForever+0x16>)
 80006aa:	2300      	movs	r3, #0
 80006ac:	e001      	b.n	80006b2 <LoopFillZerobss>

080006ae <FillZerobss>:
 80006ae:	6013      	str	r3, [r2, #0]
 80006b0:	3204      	adds	r2, #4

080006b2 <LoopFillZerobss>:
 80006b2:	42a2      	cmp	r2, r4
 80006b4:	d3fb      	bcc.n	80006ae <FillZerobss>
 80006b6:	f7ff ffdb 	bl	8000670 <SystemInit>
 80006ba:	f001 f97b 	bl	80019b4 <__libc_init_array>
 80006be:	f7ff feb5 	bl	800042c <main>

080006c2 <LoopForever>:
 80006c2:	e7fe      	b.n	80006c2 <LoopForever>
 80006c4:	20020000 	.word	0x20020000
 80006c8:	20000000 	.word	0x20000000
 80006cc:	2000000c 	.word	0x2000000c
 80006d0:	08001a60 	.word	0x08001a60
 80006d4:	2000000c 	.word	0x2000000c
 80006d8:	200000f4 	.word	0x200000f4

080006dc <ADC1_2_IRQHandler>:
 80006dc:	e7fe      	b.n	80006dc <ADC1_2_IRQHandler>
	...

080006e0 <HAL_InitTick>:
 80006e0:	b538      	push	{r3, r4, r5, lr}
 80006e2:	4b0f      	ldr	r3, [pc, #60]	; (8000720 <HAL_InitTick+0x40>)
 80006e4:	4605      	mov	r5, r0
 80006e6:	6818      	ldr	r0, [r3, #0]
 80006e8:	b908      	cbnz	r0, 80006ee <HAL_InitTick+0xe>
 80006ea:	2001      	movs	r0, #1
 80006ec:	bd38      	pop	{r3, r4, r5, pc}
 80006ee:	4a0d      	ldr	r2, [pc, #52]	; (8000724 <HAL_InitTick+0x44>)
 80006f0:	f44f 737a 	mov.w	r3, #1000	; 0x3e8
 80006f4:	fbb3 f3f0 	udiv	r3, r3, r0
 80006f8:	6810      	ldr	r0, [r2, #0]
 80006fa:	fbb0 f0f3 	udiv	r0, r0, r3
 80006fe:	f000 f88b 	bl	8000818 <HAL_SYSTICK_Config>
 8000702:	4604      	mov	r4, r0
 8000704:	2800      	cmp	r0, #0
 8000706:	d1f0      	bne.n	80006ea <HAL_InitTick+0xa>
 8000708:	2d0f      	cmp	r5, #15
 800070a:	d8ee      	bhi.n	80006ea <HAL_InitTick+0xa>
 800070c:	4602      	mov	r2, r0
 800070e:	4629      	mov	r1, r5
 8000710:	f04f 30ff 	mov.w	r0, #4294967295
 8000714:	f000 f83e 	bl	8000794 <HAL_NVIC_SetPriority>
 8000718:	4b03      	ldr	r3, [pc, #12]	; (8000728 <HAL_InitTick+0x48>)
 800071a:	4620      	mov	r0, r4
 800071c:	601d      	str	r5, [r3, #0]
 800071e:	e7e5      	b.n	80006ec <HAL_InitTick+0xc>
 8000720:	20000004 	.word	0x20000004
 8000724:	20000000 	.word	0x20000000
 8000728:	20000008 	.word	0x20000008

0800072c <HAL_Init>:
 800072c:	b510      	push	{r4, lr}
 800072e:	2003      	movs	r0, #3
 8000730:	f000 f81e 	bl	8000770 <HAL_NVIC_SetPriorityGrouping>
 8000734:	2000      	movs	r0, #0
 8000736:	f7ff ffd3 	bl	80006e0 <HAL_InitTick>
 800073a:	4604      	mov	r4, r0
 800073c:	b918      	cbnz	r0, 8000746 <HAL_Init+0x1a>
 800073e:	f7ff ff35 	bl	80005ac <HAL_MspInit>
 8000742:	4620      	mov	r0, r4
 8000744:	bd10      	pop	{r4, pc}
 8000746:	2401      	movs	r4, #1
 8000748:	e7fb      	b.n	8000742 <HAL_Init+0x16>
	...

0800074c <HAL_IncTick>:
 800074c:	4a03      	ldr	r2, [pc, #12]	; (800075c <HAL_IncTick+0x10>)
 800074e:	4904      	ldr	r1, [pc, #16]	; (8000760 <HAL_IncTick+0x14>)
 8000750:	6813      	ldr	r3, [r2, #0]
 8000752:	6809      	ldr	r1, [r1, #0]
 8000754:	440b      	add	r3, r1
 8000756:	6013      	str	r3, [r2, #0]
 8000758:	4770      	bx	lr
 800075a:	bf00      	nop
 800075c:	200000f0 	.word	0x200000f0
 8000760:	20000004 	.word	0x20000004

08000764 <HAL_GetTick>:
 8000764:	4b01      	ldr	r3, [pc, #4]	; (800076c <HAL_GetTick+0x8>)
 8000766:	6818      	ldr	r0, [r3, #0]
 8000768:	4770      	bx	lr
 800076a:	bf00      	nop
 800076c:	200000f0 	.word	0x200000f0

08000770 <HAL_NVIC_SetPriorityGrouping>:
 8000770:	4a07      	ldr	r2, [pc, #28]	; (8000790 <HAL_NVIC_SetPriorityGrouping+0x20>)
 8000772:	68d3      	ldr	r3, [r2, #12]
 8000774:	f423 63e0 	bic.w	r3, r3, #1792	; 0x700
 8000778:	041b      	lsls	r3, r3, #16
 800077a:	0c1b      	lsrs	r3, r3, #16
 800077c:	f043 63bf 	orr.w	r3, r3, #100139008	; 0x5f80000
 8000780:	0200      	lsls	r0, r0, #8
 8000782:	f443 3300 	orr.w	r3, r3, #131072	; 0x20000
 8000786:	f400 60e0 	and.w	r0, r0, #1792	; 0x700
 800078a:	4303      	orrs	r3, r0
 800078c:	60d3      	str	r3, [r2, #12]
 800078e:	4770      	bx	lr
 8000790:	e000ed00 	.word	0xe000ed00

08000794 <HAL_NVIC_SetPriority>:
 8000794:	4b17      	ldr	r3, [pc, #92]	; (80007f4 <HAL_NVIC_SetPriority+0x60>)
 8000796:	b570      	push	{r4, r5, r6, lr}
 8000798:	68dc      	ldr	r4, [r3, #12]
 800079a:	f3c4 2402 	ubfx	r4, r4, #8, #3
 800079e:	f1c4 0507 	rsb	r5, r4, #7
 80007a2:	2d04      	cmp	r5, #4
 80007a4:	f104 0304 	add.w	r3, r4, #4
 80007a8:	bf28      	it	cs
 80007aa:	2504      	movcs	r5, #4
 80007ac:	f04f 36ff 	mov.w	r6, #4294967295
 80007b0:	2b06      	cmp	r3, #6
 80007b2:	fa06 f305 	lsl.w	r3, r6, r5
 80007b6:	bf8c      	ite	hi
 80007b8:	3c03      	subhi	r4, #3
 80007ba:	2400      	movls	r4, #0
 80007bc:	ea21 0303 	bic.w	r3, r1, r3
 80007c0:	40a3      	lsls	r3, r4
 80007c2:	fa06 f404 	lsl.w	r4, r6, r4
 80007c6:	ea22 0404 	bic.w	r4, r2, r4
 80007ca:	2800      	cmp	r0, #0
 80007cc:	ea43 0304 	orr.w	r3, r3, r4
 80007d0:	bfa8      	it	ge
 80007d2:	f100 4060 	addge.w	r0, r0, #3758096384	; 0xe0000000
 80007d6:	ea4f 1303 	mov.w	r3, r3, lsl #4
 80007da:	bfbc      	itt	lt
 80007dc:	f000 000f 	andlt.w	r0, r0, #15
 80007e0:	4a05      	ldrlt	r2, [pc, #20]	; (80007f8 <HAL_NVIC_SetPriority+0x64>)
 80007e2:	b2db      	uxtb	r3, r3
 80007e4:	bfaa      	itet	ge
 80007e6:	f500 4061 	addge.w	r0, r0, #57600	; 0xe100
 80007ea:	5413      	strblt	r3, [r2, r0]
 80007ec:	f880 3300 	strbge.w	r3, [r0, #768]	; 0x300
 80007f0:	bd70      	pop	{r4, r5, r6, pc}
 80007f2:	bf00      	nop
 80007f4:	e000ed00 	.word	0xe000ed00
 80007f8:	e000ed14 	.word	0xe000ed14

080007fc <HAL_NVIC_EnableIRQ>:
 80007fc:	2800      	cmp	r0, #0
 80007fe:	db08      	blt.n	8000812 <HAL_NVIC_EnableIRQ+0x16>
 8000800:	2301      	movs	r3, #1
 8000802:	0942      	lsrs	r2, r0, #5
 8000804:	f000 001f 	and.w	r0, r0, #31
 8000808:	fa03 f000 	lsl.w	r0, r3, r0
 800080c:	4b01      	ldr	r3, [pc, #4]	; (8000814 <HAL_NVIC_EnableIRQ+0x18>)
 800080e:	f843 0022 	str.w	r0, [r3, r2, lsl #2]
 8000812:	4770      	bx	lr
 8000814:	e000e100 	.word	0xe000e100

08000818 <HAL_SYSTICK_Config>:
 8000818:	3801      	subs	r0, #1
 800081a:	f1b0 7f80 	cmp.w	r0, #16777216	; 0x1000000
 800081e:	d20a      	bcs.n	8000836 <HAL_SYSTICK_Config+0x1e>
 8000820:	4b06      	ldr	r3, [pc, #24]	; (800083c <HAL_SYSTICK_Config+0x24>)
 8000822:	4a07      	ldr	r2, [pc, #28]	; (8000840 <HAL_SYSTICK_Config+0x28>)
 8000824:	6058      	str	r0, [r3, #4]
 8000826:	21f0      	movs	r1, #240	; 0xf0
 8000828:	f882 1023 	strb.w	r1, [r2, #35]	; 0x23
 800082c:	2000      	movs	r0, #0
 800082e:	2207      	movs	r2, #7
 8000830:	6098      	str	r0, [r3, #8]
 8000832:	601a      	str	r2, [r3, #0]
 8000834:	4770      	bx	lr
 8000836:	2001      	movs	r0, #1
 8000838:	4770      	bx	lr
 800083a:	bf00      	nop
 800083c:	e000e010 	.word	0xe000e010
 8000840:	e000ed00 	.word	0xe000ed00

08000844 <HAL_FDCAN_Init>:
 8000844:	b538      	push	{r3, r4, r5, lr}
 8000846:	4604      	mov	r4, r0
 8000848:	2800      	cmp	r0, #0
 800084a:	f000 80c9 	beq.w	80009e0 <HAL_FDCAN_Init+0x19c>
 800084e:	f890 305c 	ldrb.w	r3, [r0, #92]	; 0x5c
 8000852:	f003 02ff 	and.w	r2, r3, #255	; 0xff
 8000856:	b91b      	cbnz	r3, 8000860 <HAL_FDCAN_Init+0x1c>
 8000858:	f880 205d 	strb.w	r2, [r0, #93]	; 0x5d
 800085c:	f7ff fec0 	bl	80005e0 <HAL_FDCAN_MspInit>
 8000860:	6822      	ldr	r2, [r4, #0]
 8000862:	6993      	ldr	r3, [r2, #24]
 8000864:	f023 0310 	bic.w	r3, r3, #16
 8000868:	6193      	str	r3, [r2, #24]
 800086a:	f7ff ff7b 	bl	8000764 <HAL_GetTick>
 800086e:	4605      	mov	r5, r0
 8000870:	6823      	ldr	r3, [r4, #0]
 8000872:	699a      	ldr	r2, [r3, #24]
 8000874:	0711      	lsls	r1, r2, #28
 8000876:	f100 80a6 	bmi.w	80009c6 <HAL_FDCAN_Init+0x182>
 800087a:	699a      	ldr	r2, [r3, #24]
 800087c:	f042 0201 	orr.w	r2, r2, #1
 8000880:	619a      	str	r2, [r3, #24]
 8000882:	f7ff ff6f 	bl	8000764 <HAL_GetTick>
 8000886:	4605      	mov	r5, r0
 8000888:	6823      	ldr	r3, [r4, #0]
 800088a:	699a      	ldr	r2, [r3, #24]
 800088c:	07d2      	lsls	r2, r2, #31
 800088e:	f140 80a9 	bpl.w	80009e4 <HAL_FDCAN_Init+0x1a0>
 8000892:	699a      	ldr	r2, [r3, #24]
 8000894:	f042 0202 	orr.w	r2, r2, #2
 8000898:	619a      	str	r2, [r3, #24]
 800089a:	4a62      	ldr	r2, [pc, #392]	; (8000a24 <HAL_FDCAN_Init+0x1e0>)
 800089c:	4293      	cmp	r3, r2
 800089e:	bf04      	itt	eq
 80008a0:	6861      	ldreq	r1, [r4, #4]
 80008a2:	f8c2 1100 	streq.w	r1, [r2, #256]	; 0x100
 80008a6:	7c22      	ldrb	r2, [r4, #16]
 80008a8:	2a01      	cmp	r2, #1
 80008aa:	699a      	ldr	r2, [r3, #24]
 80008ac:	bf0c      	ite	eq
 80008ae:	f022 0240 	biceq.w	r2, r2, #64	; 0x40
 80008b2:	f042 0240 	orrne.w	r2, r2, #64	; 0x40
 80008b6:	619a      	str	r2, [r3, #24]
 80008b8:	7c62      	ldrb	r2, [r4, #17]
 80008ba:	2a01      	cmp	r2, #1
 80008bc:	699a      	ldr	r2, [r3, #24]
 80008be:	bf0c      	ite	eq
 80008c0:	f442 4280 	orreq.w	r2, r2, #16384	; 0x4000
 80008c4:	f422 4280 	bicne.w	r2, r2, #16384	; 0x4000
 80008c8:	619a      	str	r2, [r3, #24]
 80008ca:	7ca2      	ldrb	r2, [r4, #18]
 80008cc:	2a01      	cmp	r2, #1
 80008ce:	699a      	ldr	r2, [r3, #24]
 80008d0:	bf0c      	ite	eq
 80008d2:	f422 5280 	biceq.w	r2, r2, #4096	; 0x1000
 80008d6:	f442 5280 	orrne.w	r2, r2, #4096	; 0x1000
 80008da:	619a      	str	r2, [r3, #24]
 80008dc:	699a      	ldr	r2, [r3, #24]
 80008de:	68a0      	ldr	r0, [r4, #8]
 80008e0:	f422 7240 	bic.w	r2, r2, #768	; 0x300
 80008e4:	4302      	orrs	r2, r0
 80008e6:	619a      	str	r2, [r3, #24]
 80008e8:	699a      	ldr	r2, [r3, #24]
 80008ea:	f022 02a4 	bic.w	r2, r2, #164	; 0xa4
 80008ee:	619a      	str	r2, [r3, #24]
 80008f0:	691a      	ldr	r2, [r3, #16]
 80008f2:	f022 0210 	bic.w	r2, r2, #16
 80008f6:	611a      	str	r2, [r3, #16]
 80008f8:	68e2      	ldr	r2, [r4, #12]
 80008fa:	2a01      	cmp	r2, #1
 80008fc:	d179      	bne.n	80009f2 <HAL_FDCAN_Init+0x1ae>
 80008fe:	699a      	ldr	r2, [r3, #24]
 8000900:	f042 0204 	orr.w	r2, r2, #4
 8000904:	619a      	str	r2, [r3, #24]
 8000906:	69a2      	ldr	r2, [r4, #24]
 8000908:	1e51      	subs	r1, r2, #1
 800090a:	69e2      	ldr	r2, [r4, #28]
 800090c:	3a01      	subs	r2, #1
 800090e:	0212      	lsls	r2, r2, #8
 8000910:	ea42 6241 	orr.w	r2, r2, r1, lsl #25
 8000914:	6a21      	ldr	r1, [r4, #32]
 8000916:	3901      	subs	r1, #1
 8000918:	430a      	orrs	r2, r1
 800091a:	6961      	ldr	r1, [r4, #20]
 800091c:	3901      	subs	r1, #1
 800091e:	ea42 4201 	orr.w	r2, r2, r1, lsl #16
 8000922:	f5b0 7f40 	cmp.w	r0, #768	; 0x300
 8000926:	61da      	str	r2, [r3, #28]
 8000928:	d10e      	bne.n	8000948 <HAL_FDCAN_Init+0x104>
 800092a:	6ae2      	ldr	r2, [r4, #44]	; 0x2c
 800092c:	1e51      	subs	r1, r2, #1
 800092e:	6b22      	ldr	r2, [r4, #48]	; 0x30
 8000930:	3a01      	subs	r2, #1
 8000932:	0112      	lsls	r2, r2, #4
 8000934:	ea42 2201 	orr.w	r2, r2, r1, lsl #8
 8000938:	6aa1      	ldr	r1, [r4, #40]	; 0x28
 800093a:	3901      	subs	r1, #1
 800093c:	430a      	orrs	r2, r1
 800093e:	6a61      	ldr	r1, [r4, #36]	; 0x24
 8000940:	3901      	subs	r1, #1
 8000942:	ea42 4201 	orr.w	r2, r2, r1, lsl #16
 8000946:	60da      	str	r2, [r3, #12]
 8000948:	f8d3 20c0 	ldr.w	r2, [r3, #192]	; 0xc0
 800094c:	6be1      	ldr	r1, [r4, #60]	; 0x3c
 800094e:	430a      	orrs	r2, r1
 8000950:	f8c3 20c0 	str.w	r2, [r3, #192]	; 0xc0
 8000954:	4a34      	ldr	r2, [pc, #208]	; (8000a28 <HAL_FDCAN_Init+0x1e4>)
 8000956:	4293      	cmp	r3, r2
 8000958:	d05e      	beq.n	8000a18 <HAL_FDCAN_Init+0x1d4>
 800095a:	4834      	ldr	r0, [pc, #208]	; (8000a2c <HAL_FDCAN_Init+0x1e8>)
 800095c:	4934      	ldr	r1, [pc, #208]	; (8000a30 <HAL_FDCAN_Init+0x1ec>)
 800095e:	f502 4285 	add.w	r2, r2, #17024	; 0x4280
 8000962:	3220      	adds	r2, #32
 8000964:	4283      	cmp	r3, r0
 8000966:	bf18      	it	ne
 8000968:	460a      	movne	r2, r1
 800096a:	f8d3 1080 	ldr.w	r1, [r3, #128]	; 0x80
 800096e:	6b60      	ldr	r0, [r4, #52]	; 0x34
 8000970:	6422      	str	r2, [r4, #64]	; 0x40
 8000972:	f421 11f8 	bic.w	r1, r1, #2031616	; 0x1f0000
 8000976:	ea41 4100 	orr.w	r1, r1, r0, lsl #16
 800097a:	f8c3 1080 	str.w	r1, [r3, #128]	; 0x80
 800097e:	f102 0170 	add.w	r1, r2, #112	; 0x70
 8000982:	6461      	str	r1, [r4, #68]	; 0x44
 8000984:	f8d3 1080 	ldr.w	r1, [r3, #128]	; 0x80
 8000988:	6ba0      	ldr	r0, [r4, #56]	; 0x38
 800098a:	f021 6170 	bic.w	r1, r1, #251658240	; 0xf000000
 800098e:	ea41 6100 	orr.w	r1, r1, r0, lsl #24
 8000992:	f8c3 1080 	str.w	r1, [r3, #128]	; 0x80
 8000996:	f102 03b0 	add.w	r3, r2, #176	; 0xb0
 800099a:	64a3      	str	r3, [r4, #72]	; 0x48
 800099c:	f502 73c4 	add.w	r3, r2, #392	; 0x188
 80009a0:	64e3      	str	r3, [r4, #76]	; 0x4c
 80009a2:	f502 7318 	add.w	r3, r2, #608	; 0x260
 80009a6:	6523      	str	r3, [r4, #80]	; 0x50
 80009a8:	f502 731e 	add.w	r3, r2, #632	; 0x278
 80009ac:	6563      	str	r3, [r4, #84]	; 0x54
 80009ae:	f502 7154 	add.w	r1, r2, #848	; 0x350
 80009b2:	2300      	movs	r3, #0
 80009b4:	428a      	cmp	r2, r1
 80009b6:	d331      	bcc.n	8000a1c <HAL_FDCAN_Init+0x1d8>
 80009b8:	6623      	str	r3, [r4, #96]	; 0x60
 80009ba:	65a3      	str	r3, [r4, #88]	; 0x58
 80009bc:	2301      	movs	r3, #1
 80009be:	f884 305c 	strb.w	r3, [r4, #92]	; 0x5c
 80009c2:	2000      	movs	r0, #0
 80009c4:	bd38      	pop	{r3, r4, r5, pc}
 80009c6:	f7ff fecd 	bl	8000764 <HAL_GetTick>
 80009ca:	1b40      	subs	r0, r0, r5
 80009cc:	280a      	cmp	r0, #10
 80009ce:	f67f af4f 	bls.w	8000870 <HAL_FDCAN_Init+0x2c>
 80009d2:	6e23      	ldr	r3, [r4, #96]	; 0x60
 80009d4:	f043 0301 	orr.w	r3, r3, #1
 80009d8:	6623      	str	r3, [r4, #96]	; 0x60
 80009da:	2303      	movs	r3, #3
 80009dc:	f884 305c 	strb.w	r3, [r4, #92]	; 0x5c
 80009e0:	2001      	movs	r0, #1
 80009e2:	e7ef      	b.n	80009c4 <HAL_FDCAN_Init+0x180>
 80009e4:	f7ff febe 	bl	8000764 <HAL_GetTick>
 80009e8:	1b40      	subs	r0, r0, r5
 80009ea:	280a      	cmp	r0, #10
 80009ec:	f67f af4c 	bls.w	8000888 <HAL_FDCAN_Init+0x44>
 80009f0:	e7ef      	b.n	80009d2 <HAL_FDCAN_Init+0x18e>
 80009f2:	2a00      	cmp	r2, #0
 80009f4:	d087      	beq.n	8000906 <HAL_FDCAN_Init+0xc2>
 80009f6:	2a02      	cmp	r2, #2
 80009f8:	d00a      	beq.n	8000a10 <HAL_FDCAN_Init+0x1cc>
 80009fa:	6999      	ldr	r1, [r3, #24]
 80009fc:	f041 0180 	orr.w	r1, r1, #128	; 0x80
 8000a00:	6199      	str	r1, [r3, #24]
 8000a02:	6919      	ldr	r1, [r3, #16]
 8000a04:	2a03      	cmp	r2, #3
 8000a06:	f041 0110 	orr.w	r1, r1, #16
 8000a0a:	6119      	str	r1, [r3, #16]
 8000a0c:	f47f af7b 	bne.w	8000906 <HAL_FDCAN_Init+0xc2>
 8000a10:	699a      	ldr	r2, [r3, #24]
 8000a12:	f042 0220 	orr.w	r2, r2, #32
 8000a16:	e775      	b.n	8000904 <HAL_FDCAN_Init+0xc0>
 8000a18:	4a06      	ldr	r2, [pc, #24]	; (8000a34 <HAL_FDCAN_Init+0x1f0>)
 8000a1a:	e7a6      	b.n	800096a <HAL_FDCAN_Init+0x126>
 8000a1c:	f842 3b04 	str.w	r3, [r2], #4
 8000a20:	e7c8      	b.n	80009b4 <HAL_FDCAN_Init+0x170>
 8000a22:	bf00      	nop
 8000a24:	40006400 	.word	0x40006400
 8000a28:	40006800 	.word	0x40006800
 8000a2c:	40006c00 	.word	0x40006c00
 8000a30:	4000a400 	.word	0x4000a400
 8000a34:	4000a750 	.word	0x4000a750

08000a38 <HAL_FDCAN_ConfigFilter>:
 8000a38:	f890 305c 	ldrb.w	r3, [r0, #92]	; 0x5c
 8000a3c:	3b01      	subs	r3, #1
 8000a3e:	2b01      	cmp	r3, #1
 8000a40:	b5f0      	push	{r4, r5, r6, r7, lr}
 8000a42:	d81b      	bhi.n	8000a7c <HAL_FDCAN_ConfigFilter+0x44>
 8000a44:	e9d1 2500 	ldrd	r2, r5, [r1]
 8000a48:	688b      	ldr	r3, [r1, #8]
 8000a4a:	694e      	ldr	r6, [r1, #20]
 8000a4c:	e9d1 7403 	ldrd	r7, r4, [r1, #12]
 8000a50:	079b      	lsls	r3, r3, #30
 8000a52:	b94a      	cbnz	r2, 8000a68 <HAL_FDCAN_ConfigFilter+0x30>
 8000a54:	ea43 63c7 	orr.w	r3, r3, r7, lsl #27
 8000a58:	6c01      	ldr	r1, [r0, #64]	; 0x40
 8000a5a:	4333      	orrs	r3, r6
 8000a5c:	ea43 4304 	orr.w	r3, r3, r4, lsl #16
 8000a60:	f841 3025 	str.w	r3, [r1, r5, lsl #2]
 8000a64:	2000      	movs	r0, #0
 8000a66:	bdf0      	pop	{r4, r5, r6, r7, pc}
 8000a68:	6c42      	ldr	r2, [r0, #68]	; 0x44
 8000a6a:	eb02 01c5 	add.w	r1, r2, r5, lsl #3
 8000a6e:	ea44 7447 	orr.w	r4, r4, r7, lsl #29
 8000a72:	4333      	orrs	r3, r6
 8000a74:	f842 4035 	str.w	r4, [r2, r5, lsl #3]
 8000a78:	604b      	str	r3, [r1, #4]
 8000a7a:	e7f3      	b.n	8000a64 <HAL_FDCAN_ConfigFilter+0x2c>
 8000a7c:	6e03      	ldr	r3, [r0, #96]	; 0x60
 8000a7e:	f043 0302 	orr.w	r3, r3, #2
 8000a82:	6603      	str	r3, [r0, #96]	; 0x60
 8000a84:	2001      	movs	r0, #1
 8000a86:	e7ee      	b.n	8000a66 <HAL_FDCAN_ConfigFilter+0x2e>

08000a88 <HAL_FDCAN_Start>:
 8000a88:	f890 305c 	ldrb.w	r3, [r0, #92]	; 0x5c
 8000a8c:	2b01      	cmp	r3, #1
 8000a8e:	d10b      	bne.n	8000aa8 <HAL_FDCAN_Start+0x20>
 8000a90:	6802      	ldr	r2, [r0, #0]
 8000a92:	2302      	movs	r3, #2
 8000a94:	f880 305c 	strb.w	r3, [r0, #92]	; 0x5c
 8000a98:	6993      	ldr	r3, [r2, #24]
 8000a9a:	f023 0301 	bic.w	r3, r3, #1
 8000a9e:	6193      	str	r3, [r2, #24]
 8000aa0:	2300      	movs	r3, #0
 8000aa2:	6603      	str	r3, [r0, #96]	; 0x60
 8000aa4:	4618      	mov	r0, r3
 8000aa6:	4770      	bx	lr
 8000aa8:	6e03      	ldr	r3, [r0, #96]	; 0x60
 8000aaa:	f043 0304 	orr.w	r3, r3, #4
 8000aae:	6603      	str	r3, [r0, #96]	; 0x60
 8000ab0:	2001      	movs	r0, #1
 8000ab2:	4770      	bx	lr

08000ab4 <HAL_FDCAN_GetRxMessage>:
 8000ab4:	b5f0      	push	{r4, r5, r6, r7, lr}
 8000ab6:	f890 405c 	ldrb.w	r4, [r0, #92]	; 0x5c
 8000aba:	2c02      	cmp	r4, #2
 8000abc:	d15e      	bne.n	8000b7c <HAL_FDCAN_GetRxMessage+0xc8>
 8000abe:	2940      	cmp	r1, #64	; 0x40
 8000ac0:	6804      	ldr	r4, [r0, #0]
 8000ac2:	d14a      	bne.n	8000b5a <HAL_FDCAN_GetRxMessage+0xa6>
 8000ac4:	f8d4 5090 	ldr.w	r5, [r4, #144]	; 0x90
 8000ac8:	072e      	lsls	r6, r5, #28
 8000aca:	d105      	bne.n	8000ad8 <HAL_FDCAN_GetRxMessage+0x24>
 8000acc:	6e03      	ldr	r3, [r0, #96]	; 0x60
 8000ace:	f443 7380 	orr.w	r3, r3, #256	; 0x100
 8000ad2:	6603      	str	r3, [r0, #96]	; 0x60
 8000ad4:	2001      	movs	r0, #1
 8000ad6:	e03f      	b.n	8000b58 <HAL_FDCAN_GetRxMessage+0xa4>
 8000ad8:	f8d4 5090 	ldr.w	r5, [r4, #144]	; 0x90
 8000adc:	6c84      	ldr	r4, [r0, #72]	; 0x48
 8000ade:	f3c5 2501 	ubfx	r5, r5, #8, #2
 8000ae2:	2648      	movs	r6, #72	; 0x48
 8000ae4:	fb06 4405 	mla	r4, r6, r5, r4
 8000ae8:	6827      	ldr	r7, [r4, #0]
 8000aea:	f007 4780 	and.w	r7, r7, #1073741824	; 0x40000000
 8000aee:	6057      	str	r7, [r2, #4]
 8000af0:	6826      	ldr	r6, [r4, #0]
 8000af2:	2f00      	cmp	r7, #0
 8000af4:	d13b      	bne.n	8000b6e <HAL_FDCAN_GetRxMessage+0xba>
 8000af6:	f3c6 468a 	ubfx	r6, r6, #18, #11
 8000afa:	6016      	str	r6, [r2, #0]
 8000afc:	6826      	ldr	r6, [r4, #0]
 8000afe:	f8df c084 	ldr.w	ip, [pc, #132]	; 8000b84 <HAL_FDCAN_GetRxMessage+0xd0>
 8000b02:	f006 5600 	and.w	r6, r6, #536870912	; 0x20000000
 8000b06:	6096      	str	r6, [r2, #8]
 8000b08:	6826      	ldr	r6, [r4, #0]
 8000b0a:	f006 4600 	and.w	r6, r6, #2147483648	; 0x80000000
 8000b0e:	6116      	str	r6, [r2, #16]
 8000b10:	88a6      	ldrh	r6, [r4, #4]
 8000b12:	61d6      	str	r6, [r2, #28]
 8000b14:	6866      	ldr	r6, [r4, #4]
 8000b16:	f406 2670 	and.w	r6, r6, #983040	; 0xf0000
 8000b1a:	60d6      	str	r6, [r2, #12]
 8000b1c:	6866      	ldr	r6, [r4, #4]
 8000b1e:	f406 1680 	and.w	r6, r6, #1048576	; 0x100000
 8000b22:	6156      	str	r6, [r2, #20]
 8000b24:	6866      	ldr	r6, [r4, #4]
 8000b26:	f406 1600 	and.w	r6, r6, #2097152	; 0x200000
 8000b2a:	6196      	str	r6, [r2, #24]
 8000b2c:	79e6      	ldrb	r6, [r4, #7]
 8000b2e:	f006 067f 	and.w	r6, r6, #127	; 0x7f
 8000b32:	6216      	str	r6, [r2, #32]
 8000b34:	6866      	ldr	r6, [r4, #4]
 8000b36:	0ff6      	lsrs	r6, r6, #31
 8000b38:	6256      	str	r6, [r2, #36]	; 0x24
 8000b3a:	3408      	adds	r4, #8
 8000b3c:	2600      	movs	r6, #0
 8000b3e:	89d7      	ldrh	r7, [r2, #14]
 8000b40:	f81c 7007 	ldrb.w	r7, [ip, r7]
 8000b44:	42b7      	cmp	r7, r6
 8000b46:	d815      	bhi.n	8000b74 <HAL_FDCAN_GetRxMessage+0xc0>
 8000b48:	6803      	ldr	r3, [r0, #0]
 8000b4a:	2940      	cmp	r1, #64	; 0x40
 8000b4c:	bf0c      	ite	eq
 8000b4e:	f8c3 5094 	streq.w	r5, [r3, #148]	; 0x94
 8000b52:	f8c3 509c 	strne.w	r5, [r3, #156]	; 0x9c
 8000b56:	2000      	movs	r0, #0
 8000b58:	bdf0      	pop	{r4, r5, r6, r7, pc}
 8000b5a:	f8d4 5098 	ldr.w	r5, [r4, #152]	; 0x98
 8000b5e:	072d      	lsls	r5, r5, #28
 8000b60:	d0b4      	beq.n	8000acc <HAL_FDCAN_GetRxMessage+0x18>
 8000b62:	f8d4 5098 	ldr.w	r5, [r4, #152]	; 0x98
 8000b66:	6cc4      	ldr	r4, [r0, #76]	; 0x4c
 8000b68:	f3c5 2501 	ubfx	r5, r5, #8, #2
 8000b6c:	e7b9      	b.n	8000ae2 <HAL_FDCAN_GetRxMessage+0x2e>
 8000b6e:	f026 4660 	bic.w	r6, r6, #3758096384	; 0xe0000000
 8000b72:	e7c2      	b.n	8000afa <HAL_FDCAN_GetRxMessage+0x46>
 8000b74:	5da7      	ldrb	r7, [r4, r6]
 8000b76:	559f      	strb	r7, [r3, r6]
 8000b78:	3601      	adds	r6, #1
 8000b7a:	e7e0      	b.n	8000b3e <HAL_FDCAN_GetRxMessage+0x8a>
 8000b7c:	6e03      	ldr	r3, [r0, #96]	; 0x60
 8000b7e:	f043 0308 	orr.w	r3, r3, #8
 8000b82:	e7a6      	b.n	8000ad2 <HAL_FDCAN_GetRxMessage+0x1e>
 8000b84:	08001a48 	.word	0x08001a48

08000b88 <HAL_FDCAN_ActivateNotification>:
 8000b88:	f890 305c 	ldrb.w	r3, [r0, #92]	; 0x5c
 8000b8c:	3b01      	subs	r3, #1
 8000b8e:	2b01      	cmp	r3, #1
 8000b90:	b530      	push	{r4, r5, lr}
 8000b92:	d860      	bhi.n	8000c56 <HAL_FDCAN_ActivateNotification+0xce>
 8000b94:	6800      	ldr	r0, [r0, #0]
 8000b96:	f011 0507 	ands.w	r5, r1, #7
 8000b9a:	6d83      	ldr	r3, [r0, #88]	; 0x58
 8000b9c:	d001      	beq.n	8000ba2 <HAL_FDCAN_ActivateNotification+0x1a>
 8000b9e:	07dc      	lsls	r4, r3, #31
 8000ba0:	d51d      	bpl.n	8000bde <HAL_FDCAN_ActivateNotification+0x56>
 8000ba2:	f011 0f38 	tst.w	r1, #56	; 0x38
 8000ba6:	d001      	beq.n	8000bac <HAL_FDCAN_ActivateNotification+0x24>
 8000ba8:	079c      	lsls	r4, r3, #30
 8000baa:	d518      	bpl.n	8000bde <HAL_FDCAN_ActivateNotification+0x56>
 8000bac:	f411 7fe0 	tst.w	r1, #448	; 0x1c0
 8000bb0:	d001      	beq.n	8000bb6 <HAL_FDCAN_ActivateNotification+0x2e>
 8000bb2:	075c      	lsls	r4, r3, #29
 8000bb4:	d513      	bpl.n	8000bde <HAL_FDCAN_ActivateNotification+0x56>
 8000bb6:	f411 5ff0 	tst.w	r1, #7680	; 0x1e00
 8000bba:	d001      	beq.n	8000bc0 <HAL_FDCAN_ActivateNotification+0x38>
 8000bbc:	071c      	lsls	r4, r3, #28
 8000bbe:	d50e      	bpl.n	8000bde <HAL_FDCAN_ActivateNotification+0x56>
 8000bc0:	f411 4f60 	tst.w	r1, #57344	; 0xe000
 8000bc4:	d001      	beq.n	8000bca <HAL_FDCAN_ActivateNotification+0x42>
 8000bc6:	06dc      	lsls	r4, r3, #27
 8000bc8:	d509      	bpl.n	8000bde <HAL_FDCAN_ActivateNotification+0x56>
 8000bca:	f411 3f40 	tst.w	r1, #196608	; 0x30000
 8000bce:	d001      	beq.n	8000bd4 <HAL_FDCAN_ActivateNotification+0x4c>
 8000bd0:	069c      	lsls	r4, r3, #26
 8000bd2:	d504      	bpl.n	8000bde <HAL_FDCAN_ActivateNotification+0x56>
 8000bd4:	f411 0f7c 	tst.w	r1, #16515072	; 0xfc0000
 8000bd8:	d005      	beq.n	8000be6 <HAL_FDCAN_ActivateNotification+0x5e>
 8000bda:	065c      	lsls	r4, r3, #25
 8000bdc:	d403      	bmi.n	8000be6 <HAL_FDCAN_ActivateNotification+0x5e>
 8000bde:	6dc4      	ldr	r4, [r0, #92]	; 0x5c
 8000be0:	f044 0401 	orr.w	r4, r4, #1
 8000be4:	65c4      	str	r4, [r0, #92]	; 0x5c
 8000be6:	b10d      	cbz	r5, 8000bec <HAL_FDCAN_ActivateNotification+0x64>
 8000be8:	07dd      	lsls	r5, r3, #31
 8000bea:	d41d      	bmi.n	8000c28 <HAL_FDCAN_ActivateNotification+0xa0>
 8000bec:	f011 0f38 	tst.w	r1, #56	; 0x38
 8000bf0:	d001      	beq.n	8000bf6 <HAL_FDCAN_ActivateNotification+0x6e>
 8000bf2:	079c      	lsls	r4, r3, #30
 8000bf4:	d418      	bmi.n	8000c28 <HAL_FDCAN_ActivateNotification+0xa0>
 8000bf6:	f411 7fe0 	tst.w	r1, #448	; 0x1c0
 8000bfa:	d001      	beq.n	8000c00 <HAL_FDCAN_ActivateNotification+0x78>
 8000bfc:	075d      	lsls	r5, r3, #29
 8000bfe:	d413      	bmi.n	8000c28 <HAL_FDCAN_ActivateNotification+0xa0>
 8000c00:	f411 5ff0 	tst.w	r1, #7680	; 0x1e00
 8000c04:	d001      	beq.n	8000c0a <HAL_FDCAN_ActivateNotification+0x82>
 8000c06:	071c      	lsls	r4, r3, #28
 8000c08:	d40e      	bmi.n	8000c28 <HAL_FDCAN_ActivateNotification+0xa0>
 8000c0a:	f411 4f60 	tst.w	r1, #57344	; 0xe000
 8000c0e:	d001      	beq.n	8000c14 <HAL_FDCAN_ActivateNotification+0x8c>
 8000c10:	06dd      	lsls	r5, r3, #27
 8000c12:	d409      	bmi.n	8000c28 <HAL_FDCAN_ActivateNotification+0xa0>
 8000c14:	f411 3f40 	tst.w	r1, #196608	; 0x30000
 8000c18:	d001      	beq.n	8000c1e <HAL_FDCAN_ActivateNotification+0x96>
 8000c1a:	069c      	lsls	r4, r3, #26
 8000c1c:	d404      	bmi.n	8000c28 <HAL_FDCAN_ActivateNotification+0xa0>
 8000c1e:	f411 0f7c 	tst.w	r1, #16515072	; 0xfc0000
 8000c22:	d005      	beq.n	8000c30 <HAL_FDCAN_ActivateNotification+0xa8>
 8000c24:	065d      	lsls	r5, r3, #25
 8000c26:	d503      	bpl.n	8000c30 <HAL_FDCAN_ActivateNotification+0xa8>
 8000c28:	6dc3      	ldr	r3, [r0, #92]	; 0x5c
 8000c2a:	f043 0302 	orr.w	r3, r3, #2
 8000c2e:	65c3      	str	r3, [r0, #92]	; 0x5c
 8000c30:	060c      	lsls	r4, r1, #24
 8000c32:	bf42      	ittt	mi
 8000c34:	f8d0 30dc 	ldrmi.w	r3, [r0, #220]	; 0xdc
 8000c38:	4313      	orrmi	r3, r2
 8000c3a:	f8c0 30dc 	strmi.w	r3, [r0, #220]	; 0xdc
 8000c3e:	05cb      	lsls	r3, r1, #23
 8000c40:	bf42      	ittt	mi
 8000c42:	f8d0 30e0 	ldrmi.w	r3, [r0, #224]	; 0xe0
 8000c46:	431a      	orrmi	r2, r3
 8000c48:	f8c0 20e0 	strmi.w	r2, [r0, #224]	; 0xe0
 8000c4c:	6d43      	ldr	r3, [r0, #84]	; 0x54
 8000c4e:	4319      	orrs	r1, r3
 8000c50:	6541      	str	r1, [r0, #84]	; 0x54
 8000c52:	2000      	movs	r0, #0
 8000c54:	bd30      	pop	{r4, r5, pc}
 8000c56:	6e03      	ldr	r3, [r0, #96]	; 0x60
 8000c58:	f043 0302 	orr.w	r3, r3, #2
 8000c5c:	6603      	str	r3, [r0, #96]	; 0x60
 8000c5e:	2001      	movs	r0, #1
 8000c60:	e7f8      	b.n	8000c54 <HAL_FDCAN_ActivateNotification+0xcc>

08000c62 <HAL_FDCAN_TxEventFifoCallback>:
 8000c62:	4770      	bx	lr

08000c64 <HAL_FDCAN_RxFifo1Callback>:
 8000c64:	4770      	bx	lr

08000c66 <HAL_FDCAN_TxFifoEmptyCallback>:
 8000c66:	4770      	bx	lr

08000c68 <HAL_FDCAN_TxBufferCompleteCallback>:
 8000c68:	4770      	bx	lr

08000c6a <HAL_FDCAN_TxBufferAbortCallback>:
 8000c6a:	4770      	bx	lr

08000c6c <HAL_FDCAN_TimestampWraparoundCallback>:
 8000c6c:	4770      	bx	lr

08000c6e <HAL_FDCAN_TimeoutOccurredCallback>:
 8000c6e:	4770      	bx	lr

08000c70 <HAL_FDCAN_HighPriorityMessageCallback>:
 8000c70:	4770      	bx	lr

08000c72 <HAL_FDCAN_ErrorCallback>:
 8000c72:	4770      	bx	lr

08000c74 <HAL_FDCAN_ErrorStatusCallback>:
 8000c74:	4770      	bx	lr

08000c76 <HAL_FDCAN_IRQHandler>:
 8000c76:	e92d 43f8 	stmdb	sp!, {r3, r4, r5, r6, r7, r8, r9, lr}
 8000c7a:	6803      	ldr	r3, [r0, #0]
 8000c7c:	6d1a      	ldr	r2, [r3, #80]	; 0x50
 8000c7e:	6d59      	ldr	r1, [r3, #84]	; 0x54
 8000c80:	ea02 0901 	and.w	r9, r2, r1
 8000c84:	6d1a      	ldr	r2, [r3, #80]	; 0x50
 8000c86:	6d59      	ldr	r1, [r3, #84]	; 0x54
 8000c88:	6d1f      	ldr	r7, [r3, #80]	; 0x50
 8000c8a:	ea02 0801 	and.w	r8, r2, r1
 8000c8e:	6d5a      	ldr	r2, [r3, #84]	; 0x54
 8000c90:	6d1d      	ldr	r5, [r3, #80]	; 0x50
 8000c92:	4017      	ands	r7, r2
 8000c94:	6d5a      	ldr	r2, [r3, #84]	; 0x54
 8000c96:	6d1e      	ldr	r6, [r3, #80]	; 0x50
 8000c98:	4015      	ands	r5, r2
 8000c9a:	6d5a      	ldr	r2, [r3, #84]	; 0x54
 8000c9c:	4016      	ands	r6, r2
 8000c9e:	6d1a      	ldr	r2, [r3, #80]	; 0x50
 8000ca0:	0652      	lsls	r2, r2, #25
 8000ca2:	4604      	mov	r4, r0
 8000ca4:	f409 59e0 	and.w	r9, r9, #7168	; 0x1c00
 8000ca8:	f008 0807 	and.w	r8, r8, #7
 8000cac:	f007 0738 	and.w	r7, r7, #56	; 0x38
 8000cb0:	f405 0571 	and.w	r5, r5, #15794176	; 0xf10000
 8000cb4:	f406 2660 	and.w	r6, r6, #917504	; 0xe0000
 8000cb8:	d506      	bpl.n	8000cc8 <HAL_FDCAN_IRQHandler+0x52>
 8000cba:	6d5a      	ldr	r2, [r3, #84]	; 0x54
 8000cbc:	0651      	lsls	r1, r2, #25
 8000cbe:	d503      	bpl.n	8000cc8 <HAL_FDCAN_IRQHandler+0x52>
 8000cc0:	2240      	movs	r2, #64	; 0x40
 8000cc2:	651a      	str	r2, [r3, #80]	; 0x50
 8000cc4:	f7ff ffd4 	bl	8000c70 <HAL_FDCAN_HighPriorityMessageCallback>
 8000cc8:	6823      	ldr	r3, [r4, #0]
 8000cca:	6d1a      	ldr	r2, [r3, #80]	; 0x50
 8000ccc:	05d2      	lsls	r2, r2, #23
 8000cce:	d50d      	bpl.n	8000cec <HAL_FDCAN_IRQHandler+0x76>
 8000cd0:	6d5a      	ldr	r2, [r3, #84]	; 0x54
 8000cd2:	05d0      	lsls	r0, r2, #23
 8000cd4:	d50a      	bpl.n	8000cec <HAL_FDCAN_IRQHandler+0x76>
 8000cd6:	f8d3 10d8 	ldr.w	r1, [r3, #216]	; 0xd8
 8000cda:	f8d3 20e0 	ldr.w	r2, [r3, #224]	; 0xe0
 8000cde:	f44f 7080 	mov.w	r0, #256	; 0x100
 8000ce2:	6518      	str	r0, [r3, #80]	; 0x50
 8000ce4:	4011      	ands	r1, r2
 8000ce6:	4620      	mov	r0, r4
 8000ce8:	f7ff ffbf 	bl	8000c6a <HAL_FDCAN_TxBufferAbortCallback>
 8000cec:	f1b9 0f00 	cmp.w	r9, #0
 8000cf0:	d006      	beq.n	8000d00 <HAL_FDCAN_IRQHandler+0x8a>
 8000cf2:	6823      	ldr	r3, [r4, #0]
 8000cf4:	4649      	mov	r1, r9
 8000cf6:	f8c3 9050 	str.w	r9, [r3, #80]	; 0x50
 8000cfa:	4620      	mov	r0, r4
 8000cfc:	f7ff ffb1 	bl	8000c62 <HAL_FDCAN_TxEventFifoCallback>
 8000d00:	f1b8 0f00 	cmp.w	r8, #0
 8000d04:	d006      	beq.n	8000d14 <HAL_FDCAN_IRQHandler+0x9e>
 8000d06:	6823      	ldr	r3, [r4, #0]
 8000d08:	4641      	mov	r1, r8
 8000d0a:	f8c3 8050 	str.w	r8, [r3, #80]	; 0x50
 8000d0e:	4620      	mov	r0, r4
 8000d10:	f7ff fb1a 	bl	8000348 <HAL_FDCAN_RxFifo0Callback>
 8000d14:	b12f      	cbz	r7, 8000d22 <HAL_FDCAN_IRQHandler+0xac>
 8000d16:	6823      	ldr	r3, [r4, #0]
 8000d18:	4639      	mov	r1, r7
 8000d1a:	651f      	str	r7, [r3, #80]	; 0x50
 8000d1c:	4620      	mov	r0, r4
 8000d1e:	f7ff ffa1 	bl	8000c64 <HAL_FDCAN_RxFifo1Callback>
 8000d22:	6823      	ldr	r3, [r4, #0]
 8000d24:	6d1a      	ldr	r2, [r3, #80]	; 0x50
 8000d26:	0591      	lsls	r1, r2, #22
 8000d28:	d508      	bpl.n	8000d3c <HAL_FDCAN_IRQHandler+0xc6>
 8000d2a:	6d5a      	ldr	r2, [r3, #84]	; 0x54
 8000d2c:	0592      	lsls	r2, r2, #22
 8000d2e:	d505      	bpl.n	8000d3c <HAL_FDCAN_IRQHandler+0xc6>
 8000d30:	f44f 7200 	mov.w	r2, #512	; 0x200
 8000d34:	651a      	str	r2, [r3, #80]	; 0x50
 8000d36:	4620      	mov	r0, r4
 8000d38:	f7ff ff95 	bl	8000c66 <HAL_FDCAN_TxFifoEmptyCallback>
 8000d3c:	6823      	ldr	r3, [r4, #0]
 8000d3e:	6d1a      	ldr	r2, [r3, #80]	; 0x50
 8000d40:	0617      	lsls	r7, r2, #24
 8000d42:	d50c      	bpl.n	8000d5e <HAL_FDCAN_IRQHandler+0xe8>
 8000d44:	6d5a      	ldr	r2, [r3, #84]	; 0x54
 8000d46:	0610      	lsls	r0, r2, #24
 8000d48:	d509      	bpl.n	8000d5e <HAL_FDCAN_IRQHandler+0xe8>
 8000d4a:	f8d3 10d4 	ldr.w	r1, [r3, #212]	; 0xd4
 8000d4e:	f8d3 20dc 	ldr.w	r2, [r3, #220]	; 0xdc
 8000d52:	2080      	movs	r0, #128	; 0x80
 8000d54:	6518      	str	r0, [r3, #80]	; 0x50
 8000d56:	4011      	ands	r1, r2
 8000d58:	4620      	mov	r0, r4
 8000d5a:	f7ff ff85 	bl	8000c68 <HAL_FDCAN_TxBufferCompleteCallback>
 8000d5e:	6823      	ldr	r3, [r4, #0]
 8000d60:	6d1a      	ldr	r2, [r3, #80]	; 0x50
 8000d62:	0491      	lsls	r1, r2, #18
 8000d64:	d508      	bpl.n	8000d78 <HAL_FDCAN_IRQHandler+0x102>
 8000d66:	6d5a      	ldr	r2, [r3, #84]	; 0x54
 8000d68:	0492      	lsls	r2, r2, #18
 8000d6a:	d505      	bpl.n	8000d78 <HAL_FDCAN_IRQHandler+0x102>
 8000d6c:	f44f 5200 	mov.w	r2, #8192	; 0x2000
 8000d70:	651a      	str	r2, [r3, #80]	; 0x50
 8000d72:	4620      	mov	r0, r4
 8000d74:	f7ff ff7a 	bl	8000c6c <HAL_FDCAN_TimestampWraparoundCallback>
 8000d78:	6823      	ldr	r3, [r4, #0]
 8000d7a:	6d1a      	ldr	r2, [r3, #80]	; 0x50
 8000d7c:	0417      	lsls	r7, r2, #16
 8000d7e:	d508      	bpl.n	8000d92 <HAL_FDCAN_IRQHandler+0x11c>
 8000d80:	6d5a      	ldr	r2, [r3, #84]	; 0x54
 8000d82:	0410      	lsls	r0, r2, #16
 8000d84:	d505      	bpl.n	8000d92 <HAL_FDCAN_IRQHandler+0x11c>
 8000d86:	f44f 4200 	mov.w	r2, #32768	; 0x8000
 8000d8a:	651a      	str	r2, [r3, #80]	; 0x50
 8000d8c:	4620      	mov	r0, r4
 8000d8e:	f7ff ff6e 	bl	8000c6e <HAL_FDCAN_TimeoutOccurredCallback>
 8000d92:	6823      	ldr	r3, [r4, #0]
 8000d94:	6d1a      	ldr	r2, [r3, #80]	; 0x50
 8000d96:	0451      	lsls	r1, r2, #17
 8000d98:	d509      	bpl.n	8000dae <HAL_FDCAN_IRQHandler+0x138>
 8000d9a:	6d5a      	ldr	r2, [r3, #84]	; 0x54
 8000d9c:	0452      	lsls	r2, r2, #17
 8000d9e:	d506      	bpl.n	8000dae <HAL_FDCAN_IRQHandler+0x138>
 8000da0:	f44f 4280 	mov.w	r2, #16384	; 0x4000
 8000da4:	651a      	str	r2, [r3, #80]	; 0x50
 8000da6:	6e22      	ldr	r2, [r4, #96]	; 0x60
 8000da8:	f042 0280 	orr.w	r2, r2, #128	; 0x80
 8000dac:	6622      	str	r2, [r4, #96]	; 0x60
 8000dae:	b126      	cbz	r6, 8000dba <HAL_FDCAN_IRQHandler+0x144>
 8000db0:	651e      	str	r6, [r3, #80]	; 0x50
 8000db2:	4631      	mov	r1, r6
 8000db4:	4620      	mov	r0, r4
 8000db6:	f7ff ff5d 	bl	8000c74 <HAL_FDCAN_ErrorStatusCallback>
 8000dba:	b125      	cbz	r5, 8000dc6 <HAL_FDCAN_IRQHandler+0x150>
 8000dbc:	6823      	ldr	r3, [r4, #0]
 8000dbe:	651d      	str	r5, [r3, #80]	; 0x50
 8000dc0:	6e23      	ldr	r3, [r4, #96]	; 0x60
 8000dc2:	431d      	orrs	r5, r3
 8000dc4:	6625      	str	r5, [r4, #96]	; 0x60
 8000dc6:	6e23      	ldr	r3, [r4, #96]	; 0x60
 8000dc8:	b113      	cbz	r3, 8000dd0 <HAL_FDCAN_IRQHandler+0x15a>
 8000dca:	4620      	mov	r0, r4
 8000dcc:	f7ff ff51 	bl	8000c72 <HAL_FDCAN_ErrorCallback>
 8000dd0:	e8bd 83f8 	ldmia.w	sp!, {r3, r4, r5, r6, r7, r8, r9, pc}

08000dd4 <HAL_GPIO_Init>:
 8000dd4:	e92d 4ff7 	stmdb	sp!, {r0, r1, r2, r4, r5, r6, r7, r8, r9, sl, fp, lr}
 8000dd8:	f8d1 8000 	ldr.w	r8, [r1]
 8000ddc:	f8df 9188 	ldr.w	r9, [pc, #392]	; 8000f68 <HAL_GPIO_Init+0x194>
 8000de0:	4a5f      	ldr	r2, [pc, #380]	; (8000f60 <HAL_GPIO_Init+0x18c>)
 8000de2:	2300      	movs	r3, #0
 8000de4:	fa38 f403 	lsrs.w	r4, r8, r3
 8000de8:	d102      	bne.n	8000df0 <HAL_GPIO_Init+0x1c>
 8000dea:	b003      	add	sp, #12
 8000dec:	e8bd 8ff0 	ldmia.w	sp!, {r4, r5, r6, r7, r8, r9, sl, fp, pc}
 8000df0:	2401      	movs	r4, #1
 8000df2:	fa04 fc03 	lsl.w	ip, r4, r3
 8000df6:	ea1c 0608 	ands.w	r6, ip, r8
 8000dfa:	f000 80a4 	beq.w	8000f46 <HAL_GPIO_Init+0x172>
 8000dfe:	684c      	ldr	r4, [r1, #4]
 8000e00:	f024 0a10 	bic.w	sl, r4, #16
 8000e04:	ea4f 0e43 	mov.w	lr, r3, lsl #1
 8000e08:	2503      	movs	r5, #3
 8000e0a:	f10a 37ff 	add.w	r7, sl, #4294967295
 8000e0e:	fa05 f50e 	lsl.w	r5, r5, lr
 8000e12:	2f01      	cmp	r7, #1
 8000e14:	ea6f 0505 	mvn.w	r5, r5
 8000e18:	d811      	bhi.n	8000e3e <HAL_GPIO_Init+0x6a>
 8000e1a:	6887      	ldr	r7, [r0, #8]
 8000e1c:	ea07 0b05 	and.w	fp, r7, r5
 8000e20:	68cf      	ldr	r7, [r1, #12]
 8000e22:	fa07 f70e 	lsl.w	r7, r7, lr
 8000e26:	ea47 070b 	orr.w	r7, r7, fp
 8000e2a:	6087      	str	r7, [r0, #8]
 8000e2c:	6847      	ldr	r7, [r0, #4]
 8000e2e:	ea27 0c0c 	bic.w	ip, r7, ip
 8000e32:	f3c4 1700 	ubfx	r7, r4, #4, #1
 8000e36:	409f      	lsls	r7, r3
 8000e38:	ea47 070c 	orr.w	r7, r7, ip
 8000e3c:	6047      	str	r7, [r0, #4]
 8000e3e:	68c7      	ldr	r7, [r0, #12]
 8000e40:	ea07 0c05 	and.w	ip, r7, r5
 8000e44:	688f      	ldr	r7, [r1, #8]
 8000e46:	fa07 f70e 	lsl.w	r7, r7, lr
 8000e4a:	ea47 070c 	orr.w	r7, r7, ip
 8000e4e:	f1ba 0f02 	cmp.w	sl, #2
 8000e52:	60c7      	str	r7, [r0, #12]
 8000e54:	d116      	bne.n	8000e84 <HAL_GPIO_Init+0xb0>
 8000e56:	ea4f 0ad3 	mov.w	sl, r3, lsr #3
 8000e5a:	eb00 0a8a 	add.w	sl, r0, sl, lsl #2
 8000e5e:	f003 0b07 	and.w	fp, r3, #7
 8000e62:	f8da 7020 	ldr.w	r7, [sl, #32]
 8000e66:	ea4f 0b8b 	mov.w	fp, fp, lsl #2
 8000e6a:	f04f 0c0f 	mov.w	ip, #15
 8000e6e:	fa0c fc0b 	lsl.w	ip, ip, fp
 8000e72:	ea27 0c0c 	bic.w	ip, r7, ip
 8000e76:	690f      	ldr	r7, [r1, #16]
 8000e78:	fa07 f70b 	lsl.w	r7, r7, fp
 8000e7c:	ea47 070c 	orr.w	r7, r7, ip
 8000e80:	f8ca 7020 	str.w	r7, [sl, #32]
 8000e84:	6807      	ldr	r7, [r0, #0]
 8000e86:	403d      	ands	r5, r7
 8000e88:	f004 0703 	and.w	r7, r4, #3
 8000e8c:	fa07 fe0e 	lsl.w	lr, r7, lr
 8000e90:	ea4e 0505 	orr.w	r5, lr, r5
 8000e94:	6005      	str	r5, [r0, #0]
 8000e96:	00e5      	lsls	r5, r4, #3
 8000e98:	d555      	bpl.n	8000f46 <HAL_GPIO_Init+0x172>
 8000e9a:	f8d9 5060 	ldr.w	r5, [r9, #96]	; 0x60
 8000e9e:	f045 0501 	orr.w	r5, r5, #1
 8000ea2:	f8c9 5060 	str.w	r5, [r9, #96]	; 0x60
 8000ea6:	f8d9 5060 	ldr.w	r5, [r9, #96]	; 0x60
 8000eaa:	f023 0703 	bic.w	r7, r3, #3
 8000eae:	f107 4780 	add.w	r7, r7, #1073741824	; 0x40000000
 8000eb2:	f005 0501 	and.w	r5, r5, #1
 8000eb6:	f507 3780 	add.w	r7, r7, #65536	; 0x10000
 8000eba:	9501      	str	r5, [sp, #4]
 8000ebc:	f003 0e03 	and.w	lr, r3, #3
 8000ec0:	9d01      	ldr	r5, [sp, #4]
 8000ec2:	68bd      	ldr	r5, [r7, #8]
 8000ec4:	ea4f 0e8e 	mov.w	lr, lr, lsl #2
 8000ec8:	f04f 0c0f 	mov.w	ip, #15
 8000ecc:	fa0c fc0e 	lsl.w	ip, ip, lr
 8000ed0:	f1b0 4f90 	cmp.w	r0, #1207959552	; 0x48000000
 8000ed4:	ea25 0c0c 	bic.w	ip, r5, ip
 8000ed8:	d037      	beq.n	8000f4a <HAL_GPIO_Init+0x176>
 8000eda:	4d22      	ldr	r5, [pc, #136]	; (8000f64 <HAL_GPIO_Init+0x190>)
 8000edc:	42a8      	cmp	r0, r5
 8000ede:	d036      	beq.n	8000f4e <HAL_GPIO_Init+0x17a>
 8000ee0:	f505 6580 	add.w	r5, r5, #1024	; 0x400
 8000ee4:	42a8      	cmp	r0, r5
 8000ee6:	d034      	beq.n	8000f52 <HAL_GPIO_Init+0x17e>
 8000ee8:	f505 6580 	add.w	r5, r5, #1024	; 0x400
 8000eec:	42a8      	cmp	r0, r5
 8000eee:	d032      	beq.n	8000f56 <HAL_GPIO_Init+0x182>
 8000ef0:	f505 6580 	add.w	r5, r5, #1024	; 0x400
 8000ef4:	42a8      	cmp	r0, r5
 8000ef6:	d030      	beq.n	8000f5a <HAL_GPIO_Init+0x186>
 8000ef8:	f505 6580 	add.w	r5, r5, #1024	; 0x400
 8000efc:	42a8      	cmp	r0, r5
 8000efe:	bf14      	ite	ne
 8000f00:	2506      	movne	r5, #6
 8000f02:	2505      	moveq	r5, #5
 8000f04:	fa05 f50e 	lsl.w	r5, r5, lr
 8000f08:	ea45 050c 	orr.w	r5, r5, ip
 8000f0c:	60bd      	str	r5, [r7, #8]
 8000f0e:	6815      	ldr	r5, [r2, #0]
 8000f10:	43f7      	mvns	r7, r6
 8000f12:	f414 3f80 	tst.w	r4, #65536	; 0x10000
 8000f16:	bf0c      	ite	eq
 8000f18:	403d      	andeq	r5, r7
 8000f1a:	4335      	orrne	r5, r6
 8000f1c:	6015      	str	r5, [r2, #0]
 8000f1e:	6855      	ldr	r5, [r2, #4]
 8000f20:	f414 3f00 	tst.w	r4, #131072	; 0x20000
 8000f24:	bf0c      	ite	eq
 8000f26:	403d      	andeq	r5, r7
 8000f28:	4335      	orrne	r5, r6
 8000f2a:	6055      	str	r5, [r2, #4]
 8000f2c:	6895      	ldr	r5, [r2, #8]
 8000f2e:	f414 1f80 	tst.w	r4, #1048576	; 0x100000
 8000f32:	bf0c      	ite	eq
 8000f34:	403d      	andeq	r5, r7
 8000f36:	4335      	orrne	r5, r6
 8000f38:	6095      	str	r5, [r2, #8]
 8000f3a:	68d5      	ldr	r5, [r2, #12]
 8000f3c:	02a4      	lsls	r4, r4, #10
 8000f3e:	bf54      	ite	pl
 8000f40:	403d      	andpl	r5, r7
 8000f42:	4335      	orrmi	r5, r6
 8000f44:	60d5      	str	r5, [r2, #12]
 8000f46:	3301      	adds	r3, #1
 8000f48:	e74c      	b.n	8000de4 <HAL_GPIO_Init+0x10>
 8000f4a:	2500      	movs	r5, #0
 8000f4c:	e7da      	b.n	8000f04 <HAL_GPIO_Init+0x130>
 8000f4e:	2501      	movs	r5, #1
 8000f50:	e7d8      	b.n	8000f04 <HAL_GPIO_Init+0x130>
 8000f52:	2502      	movs	r5, #2
 8000f54:	e7d6      	b.n	8000f04 <HAL_GPIO_Init+0x130>
 8000f56:	2503      	movs	r5, #3
 8000f58:	e7d4      	b.n	8000f04 <HAL_GPIO_Init+0x130>
 8000f5a:	2504      	movs	r5, #4
 8000f5c:	e7d2      	b.n	8000f04 <HAL_GPIO_Init+0x130>
 8000f5e:	bf00      	nop
 8000f60:	40010400 	.word	0x40010400
 8000f64:	48000400 	.word	0x48000400
 8000f68:	40021000 	.word	0x40021000

08000f6c <HAL_GPIO_WritePin>:
 8000f6c:	b10a      	cbz	r2, 8000f72 <HAL_GPIO_WritePin+0x6>
 8000f6e:	6181      	str	r1, [r0, #24]
 8000f70:	4770      	bx	lr
 8000f72:	6281      	str	r1, [r0, #40]	; 0x28
 8000f74:	4770      	bx	lr

08000f76 <HAL_GPIO_TogglePin>:
 8000f76:	6943      	ldr	r3, [r0, #20]
 8000f78:	ea01 0203 	and.w	r2, r1, r3
 8000f7c:	ea21 0103 	bic.w	r1, r1, r3
 8000f80:	ea41 4102 	orr.w	r1, r1, r2, lsl #16
 8000f84:	6181      	str	r1, [r0, #24]
 8000f86:	4770      	bx	lr

08000f88 <HAL_PWREx_ControlVoltageScaling>:
 8000f88:	4b29      	ldr	r3, [pc, #164]	; (8001030 <HAL_PWREx_ControlVoltageScaling+0xa8>)
 8000f8a:	681a      	ldr	r2, [r3, #0]
 8000f8c:	bb28      	cbnz	r0, 8000fda <HAL_PWREx_ControlVoltageScaling+0x52>
 8000f8e:	f402 62c0 	and.w	r2, r2, #1536	; 0x600
 8000f92:	f5b2 6f80 	cmp.w	r2, #1024	; 0x400
 8000f96:	f8d3 2080 	ldr.w	r2, [r3, #128]	; 0x80
 8000f9a:	f422 7280 	bic.w	r2, r2, #256	; 0x100
 8000f9e:	f8c3 2080 	str.w	r2, [r3, #128]	; 0x80
 8000fa2:	d119      	bne.n	8000fd8 <HAL_PWREx_ControlVoltageScaling+0x50>
 8000fa4:	681a      	ldr	r2, [r3, #0]
 8000fa6:	f422 62c0 	bic.w	r2, r2, #1536	; 0x600
 8000faa:	f442 7200 	orr.w	r2, r2, #512	; 0x200
 8000fae:	601a      	str	r2, [r3, #0]
 8000fb0:	4a20      	ldr	r2, [pc, #128]	; (8001034 <HAL_PWREx_ControlVoltageScaling+0xac>)
 8000fb2:	6811      	ldr	r1, [r2, #0]
 8000fb4:	2232      	movs	r2, #50	; 0x32
 8000fb6:	434a      	muls	r2, r1
 8000fb8:	491f      	ldr	r1, [pc, #124]	; (8001038 <HAL_PWREx_ControlVoltageScaling+0xb0>)
 8000fba:	fbb2 f2f1 	udiv	r2, r2, r1
 8000fbe:	4619      	mov	r1, r3
 8000fc0:	3201      	adds	r2, #1
 8000fc2:	6958      	ldr	r0, [r3, #20]
 8000fc4:	0540      	lsls	r0, r0, #21
 8000fc6:	d500      	bpl.n	8000fca <HAL_PWREx_ControlVoltageScaling+0x42>
 8000fc8:	b922      	cbnz	r2, 8000fd4 <HAL_PWREx_ControlVoltageScaling+0x4c>
 8000fca:	694b      	ldr	r3, [r1, #20]
 8000fcc:	055b      	lsls	r3, r3, #21
 8000fce:	d52d      	bpl.n	800102c <HAL_PWREx_ControlVoltageScaling+0xa4>
 8000fd0:	2003      	movs	r0, #3
 8000fd2:	4770      	bx	lr
 8000fd4:	3a01      	subs	r2, #1
 8000fd6:	e7f4      	b.n	8000fc2 <HAL_PWREx_ControlVoltageScaling+0x3a>
 8000fd8:	4770      	bx	lr
 8000fda:	f5b0 7f00 	cmp.w	r0, #512	; 0x200
 8000fde:	d120      	bne.n	8001022 <HAL_PWREx_ControlVoltageScaling+0x9a>
 8000fe0:	f402 62c0 	and.w	r2, r2, #1536	; 0x600
 8000fe4:	f5b2 6f80 	cmp.w	r2, #1024	; 0x400
 8000fe8:	f8d3 2080 	ldr.w	r2, [r3, #128]	; 0x80
 8000fec:	f442 7280 	orr.w	r2, r2, #256	; 0x100
 8000ff0:	f8c3 2080 	str.w	r2, [r3, #128]	; 0x80
 8000ff4:	d11a      	bne.n	800102c <HAL_PWREx_ControlVoltageScaling+0xa4>
 8000ff6:	681a      	ldr	r2, [r3, #0]
 8000ff8:	f422 62c0 	bic.w	r2, r2, #1536	; 0x600
 8000ffc:	f442 7200 	orr.w	r2, r2, #512	; 0x200
 8001000:	601a      	str	r2, [r3, #0]
 8001002:	4a0c      	ldr	r2, [pc, #48]	; (8001034 <HAL_PWREx_ControlVoltageScaling+0xac>)
 8001004:	6811      	ldr	r1, [r2, #0]
 8001006:	2232      	movs	r2, #50	; 0x32
 8001008:	434a      	muls	r2, r1
 800100a:	490b      	ldr	r1, [pc, #44]	; (8001038 <HAL_PWREx_ControlVoltageScaling+0xb0>)
 800100c:	fbb2 f2f1 	udiv	r2, r2, r1
 8001010:	4619      	mov	r1, r3
 8001012:	3201      	adds	r2, #1
 8001014:	6958      	ldr	r0, [r3, #20]
 8001016:	0540      	lsls	r0, r0, #21
 8001018:	d5d7      	bpl.n	8000fca <HAL_PWREx_ControlVoltageScaling+0x42>
 800101a:	2a00      	cmp	r2, #0
 800101c:	d0d5      	beq.n	8000fca <HAL_PWREx_ControlVoltageScaling+0x42>
 800101e:	3a01      	subs	r2, #1
 8001020:	e7f8      	b.n	8001014 <HAL_PWREx_ControlVoltageScaling+0x8c>
 8001022:	f422 62c0 	bic.w	r2, r2, #1536	; 0x600
 8001026:	f442 6280 	orr.w	r2, r2, #1024	; 0x400
 800102a:	601a      	str	r2, [r3, #0]
 800102c:	2000      	movs	r0, #0
 800102e:	4770      	bx	lr
 8001030:	40007000 	.word	0x40007000
 8001034:	20000000 	.word	0x20000000
 8001038:	000f4240 	.word	0x000f4240

0800103c <HAL_PWREx_DisableUCPDDeadBattery>:
 800103c:	4a02      	ldr	r2, [pc, #8]	; (8001048 <HAL_PWREx_DisableUCPDDeadBattery+0xc>)
 800103e:	6893      	ldr	r3, [r2, #8]
 8001040:	f443 4380 	orr.w	r3, r3, #16384	; 0x4000
 8001044:	6093      	str	r3, [r2, #8]
 8001046:	4770      	bx	lr
 8001048:	40007000 	.word	0x40007000

0800104c <HAL_RCC_OscConfig>:
 800104c:	e92d 41f3 	stmdb	sp!, {r0, r1, r4, r5, r6, r7, r8, lr}
 8001050:	4604      	mov	r4, r0
 8001052:	b908      	cbnz	r0, 8001058 <HAL_RCC_OscConfig+0xc>
 8001054:	2001      	movs	r0, #1
 8001056:	e03f      	b.n	80010d8 <HAL_RCC_OscConfig+0x8c>
 8001058:	6803      	ldr	r3, [r0, #0]
 800105a:	07df      	lsls	r7, r3, #31
 800105c:	d414      	bmi.n	8001088 <HAL_RCC_OscConfig+0x3c>
 800105e:	6823      	ldr	r3, [r4, #0]
 8001060:	079e      	lsls	r6, r3, #30
 8001062:	d45a      	bmi.n	800111a <HAL_RCC_OscConfig+0xce>
 8001064:	6823      	ldr	r3, [r4, #0]
 8001066:	071e      	lsls	r6, r3, #28
 8001068:	f100 80a3 	bmi.w	80011b2 <HAL_RCC_OscConfig+0x166>
 800106c:	6823      	ldr	r3, [r4, #0]
 800106e:	075d      	lsls	r5, r3, #29
 8001070:	f100 80ca 	bmi.w	8001208 <HAL_RCC_OscConfig+0x1bc>
 8001074:	6823      	ldr	r3, [r4, #0]
 8001076:	069b      	lsls	r3, r3, #26
 8001078:	f100 8131 	bmi.w	80012de <HAL_RCC_OscConfig+0x292>
 800107c:	69e0      	ldr	r0, [r4, #28]
 800107e:	2800      	cmp	r0, #0
 8001080:	f040 815e 	bne.w	8001340 <HAL_RCC_OscConfig+0x2f4>
 8001084:	2000      	movs	r0, #0
 8001086:	e027      	b.n	80010d8 <HAL_RCC_OscConfig+0x8c>
 8001088:	4daa      	ldr	r5, [pc, #680]	; (8001334 <HAL_RCC_OscConfig+0x2e8>)
 800108a:	68ab      	ldr	r3, [r5, #8]
 800108c:	68ea      	ldr	r2, [r5, #12]
 800108e:	f003 030c 	and.w	r3, r3, #12
 8001092:	2b0c      	cmp	r3, #12
 8001094:	d10a      	bne.n	80010ac <HAL_RCC_OscConfig+0x60>
 8001096:	f002 0303 	and.w	r3, r2, #3
 800109a:	2b03      	cmp	r3, #3
 800109c:	d108      	bne.n	80010b0 <HAL_RCC_OscConfig+0x64>
 800109e:	682b      	ldr	r3, [r5, #0]
 80010a0:	039d      	lsls	r5, r3, #14
 80010a2:	d5dc      	bpl.n	800105e <HAL_RCC_OscConfig+0x12>
 80010a4:	6863      	ldr	r3, [r4, #4]
 80010a6:	2b00      	cmp	r3, #0
 80010a8:	d1d9      	bne.n	800105e <HAL_RCC_OscConfig+0x12>
 80010aa:	e7d3      	b.n	8001054 <HAL_RCC_OscConfig+0x8>
 80010ac:	2b08      	cmp	r3, #8
 80010ae:	e7f5      	b.n	800109c <HAL_RCC_OscConfig+0x50>
 80010b0:	6863      	ldr	r3, [r4, #4]
 80010b2:	f5b3 3f80 	cmp.w	r3, #65536	; 0x10000
 80010b6:	d112      	bne.n	80010de <HAL_RCC_OscConfig+0x92>
 80010b8:	682b      	ldr	r3, [r5, #0]
 80010ba:	f443 3380 	orr.w	r3, r3, #65536	; 0x10000
 80010be:	602b      	str	r3, [r5, #0]
 80010c0:	f7ff fb50 	bl	8000764 <HAL_GetTick>
 80010c4:	4606      	mov	r6, r0
 80010c6:	682b      	ldr	r3, [r5, #0]
 80010c8:	0398      	lsls	r0, r3, #14
 80010ca:	d4c8      	bmi.n	800105e <HAL_RCC_OscConfig+0x12>
 80010cc:	f7ff fb4a 	bl	8000764 <HAL_GetTick>
 80010d0:	1b80      	subs	r0, r0, r6
 80010d2:	2864      	cmp	r0, #100	; 0x64
 80010d4:	d9f7      	bls.n	80010c6 <HAL_RCC_OscConfig+0x7a>
 80010d6:	2003      	movs	r0, #3
 80010d8:	b002      	add	sp, #8
 80010da:	e8bd 81f0 	ldmia.w	sp!, {r4, r5, r6, r7, r8, pc}
 80010de:	f5b3 2fa0 	cmp.w	r3, #327680	; 0x50000
 80010e2:	d104      	bne.n	80010ee <HAL_RCC_OscConfig+0xa2>
 80010e4:	682b      	ldr	r3, [r5, #0]
 80010e6:	f443 2380 	orr.w	r3, r3, #262144	; 0x40000
 80010ea:	602b      	str	r3, [r5, #0]
 80010ec:	e7e4      	b.n	80010b8 <HAL_RCC_OscConfig+0x6c>
 80010ee:	682a      	ldr	r2, [r5, #0]
 80010f0:	f422 3280 	bic.w	r2, r2, #65536	; 0x10000
 80010f4:	602a      	str	r2, [r5, #0]
 80010f6:	682a      	ldr	r2, [r5, #0]
 80010f8:	f422 2280 	bic.w	r2, r2, #262144	; 0x40000
 80010fc:	602a      	str	r2, [r5, #0]
 80010fe:	2b00      	cmp	r3, #0
 8001100:	d1de      	bne.n	80010c0 <HAL_RCC_OscConfig+0x74>
 8001102:	f7ff fb2f 	bl	8000764 <HAL_GetTick>
 8001106:	4606      	mov	r6, r0
 8001108:	682b      	ldr	r3, [r5, #0]
 800110a:	0399      	lsls	r1, r3, #14
 800110c:	d5a7      	bpl.n	800105e <HAL_RCC_OscConfig+0x12>
 800110e:	f7ff fb29 	bl	8000764 <HAL_GetTick>
 8001112:	1b80      	subs	r0, r0, r6
 8001114:	2864      	cmp	r0, #100	; 0x64
 8001116:	d9f7      	bls.n	8001108 <HAL_RCC_OscConfig+0xbc>
 8001118:	e7dd      	b.n	80010d6 <HAL_RCC_OscConfig+0x8a>
 800111a:	4d86      	ldr	r5, [pc, #536]	; (8001334 <HAL_RCC_OscConfig+0x2e8>)
 800111c:	68ab      	ldr	r3, [r5, #8]
 800111e:	68ea      	ldr	r2, [r5, #12]
 8001120:	f003 030c 	and.w	r3, r3, #12
 8001124:	2b0c      	cmp	r3, #12
 8001126:	d117      	bne.n	8001158 <HAL_RCC_OscConfig+0x10c>
 8001128:	f002 0303 	and.w	r3, r2, #3
 800112c:	2b02      	cmp	r3, #2
 800112e:	d115      	bne.n	800115c <HAL_RCC_OscConfig+0x110>
 8001130:	682b      	ldr	r3, [r5, #0]
 8001132:	055a      	lsls	r2, r3, #21
 8001134:	d502      	bpl.n	800113c <HAL_RCC_OscConfig+0xf0>
 8001136:	68e3      	ldr	r3, [r4, #12]
 8001138:	2b00      	cmp	r3, #0
 800113a:	d08b      	beq.n	8001054 <HAL_RCC_OscConfig+0x8>
 800113c:	686b      	ldr	r3, [r5, #4]
 800113e:	6922      	ldr	r2, [r4, #16]
 8001140:	f023 43fe 	bic.w	r3, r3, #2130706432	; 0x7f000000
 8001144:	ea43 6302 	orr.w	r3, r3, r2, lsl #24
 8001148:	606b      	str	r3, [r5, #4]
 800114a:	4b7b      	ldr	r3, [pc, #492]	; (8001338 <HAL_RCC_OscConfig+0x2ec>)
 800114c:	6818      	ldr	r0, [r3, #0]
 800114e:	f7ff fac7 	bl	80006e0 <HAL_InitTick>
 8001152:	2800      	cmp	r0, #0
 8001154:	d086      	beq.n	8001064 <HAL_RCC_OscConfig+0x18>
 8001156:	e77d      	b.n	8001054 <HAL_RCC_OscConfig+0x8>
 8001158:	2b04      	cmp	r3, #4
 800115a:	e7e8      	b.n	800112e <HAL_RCC_OscConfig+0xe2>
 800115c:	68e3      	ldr	r3, [r4, #12]
 800115e:	b1bb      	cbz	r3, 8001190 <HAL_RCC_OscConfig+0x144>
 8001160:	682b      	ldr	r3, [r5, #0]
 8001162:	f443 7380 	orr.w	r3, r3, #256	; 0x100
 8001166:	602b      	str	r3, [r5, #0]
 8001168:	f7ff fafc 	bl	8000764 <HAL_GetTick>
 800116c:	4606      	mov	r6, r0
 800116e:	682b      	ldr	r3, [r5, #0]
 8001170:	055b      	lsls	r3, r3, #21
 8001172:	d507      	bpl.n	8001184 <HAL_RCC_OscConfig+0x138>
 8001174:	686b      	ldr	r3, [r5, #4]
 8001176:	6922      	ldr	r2, [r4, #16]
 8001178:	f023 43fe 	bic.w	r3, r3, #2130706432	; 0x7f000000
 800117c:	ea43 6302 	orr.w	r3, r3, r2, lsl #24
 8001180:	606b      	str	r3, [r5, #4]
 8001182:	e76f      	b.n	8001064 <HAL_RCC_OscConfig+0x18>
 8001184:	f7ff faee 	bl	8000764 <HAL_GetTick>
 8001188:	1b80      	subs	r0, r0, r6
 800118a:	2802      	cmp	r0, #2
 800118c:	d9ef      	bls.n	800116e <HAL_RCC_OscConfig+0x122>
 800118e:	e7a2      	b.n	80010d6 <HAL_RCC_OscConfig+0x8a>
 8001190:	682b      	ldr	r3, [r5, #0]
 8001192:	f423 7380 	bic.w	r3, r3, #256	; 0x100
 8001196:	602b      	str	r3, [r5, #0]
 8001198:	f7ff fae4 	bl	8000764 <HAL_GetTick>
 800119c:	4606      	mov	r6, r0
 800119e:	682b      	ldr	r3, [r5, #0]
 80011a0:	055f      	lsls	r7, r3, #21
 80011a2:	f57f af5f 	bpl.w	8001064 <HAL_RCC_OscConfig+0x18>
 80011a6:	f7ff fadd 	bl	8000764 <HAL_GetTick>
 80011aa:	1b80      	subs	r0, r0, r6
 80011ac:	2802      	cmp	r0, #2
 80011ae:	d9f6      	bls.n	800119e <HAL_RCC_OscConfig+0x152>
 80011b0:	e791      	b.n	80010d6 <HAL_RCC_OscConfig+0x8a>
 80011b2:	6963      	ldr	r3, [r4, #20]
 80011b4:	4d5f      	ldr	r5, [pc, #380]	; (8001334 <HAL_RCC_OscConfig+0x2e8>)
 80011b6:	b19b      	cbz	r3, 80011e0 <HAL_RCC_OscConfig+0x194>
 80011b8:	f8d5 3094 	ldr.w	r3, [r5, #148]	; 0x94
 80011bc:	f043 0301 	orr.w	r3, r3, #1
 80011c0:	f8c5 3094 	str.w	r3, [r5, #148]	; 0x94
 80011c4:	f7ff face 	bl	8000764 <HAL_GetTick>
 80011c8:	4606      	mov	r6, r0
 80011ca:	f8d5 3094 	ldr.w	r3, [r5, #148]	; 0x94
 80011ce:	0798      	lsls	r0, r3, #30
 80011d0:	f53f af4c 	bmi.w	800106c <HAL_RCC_OscConfig+0x20>
 80011d4:	f7ff fac6 	bl	8000764 <HAL_GetTick>
 80011d8:	1b80      	subs	r0, r0, r6
 80011da:	2802      	cmp	r0, #2
 80011dc:	d9f5      	bls.n	80011ca <HAL_RCC_OscConfig+0x17e>
 80011de:	e77a      	b.n	80010d6 <HAL_RCC_OscConfig+0x8a>
 80011e0:	f8d5 3094 	ldr.w	r3, [r5, #148]	; 0x94
 80011e4:	f023 0301 	bic.w	r3, r3, #1
 80011e8:	f8c5 3094 	str.w	r3, [r5, #148]	; 0x94
 80011ec:	f7ff faba 	bl	8000764 <HAL_GetTick>
 80011f0:	4606      	mov	r6, r0
 80011f2:	f8d5 3094 	ldr.w	r3, [r5, #148]	; 0x94
 80011f6:	0799      	lsls	r1, r3, #30
 80011f8:	f57f af38 	bpl.w	800106c <HAL_RCC_OscConfig+0x20>
 80011fc:	f7ff fab2 	bl	8000764 <HAL_GetTick>
 8001200:	1b80      	subs	r0, r0, r6
 8001202:	2802      	cmp	r0, #2
 8001204:	d9f5      	bls.n	80011f2 <HAL_RCC_OscConfig+0x1a6>
 8001206:	e766      	b.n	80010d6 <HAL_RCC_OscConfig+0x8a>
 8001208:	4d4a      	ldr	r5, [pc, #296]	; (8001334 <HAL_RCC_OscConfig+0x2e8>)
 800120a:	6dab      	ldr	r3, [r5, #88]	; 0x58
 800120c:	00da      	lsls	r2, r3, #3
 800120e:	d427      	bmi.n	8001260 <HAL_RCC_OscConfig+0x214>
 8001210:	6dab      	ldr	r3, [r5, #88]	; 0x58
 8001212:	f043 5380 	orr.w	r3, r3, #268435456	; 0x10000000
 8001216:	65ab      	str	r3, [r5, #88]	; 0x58
 8001218:	6dab      	ldr	r3, [r5, #88]	; 0x58
 800121a:	f003 5380 	and.w	r3, r3, #268435456	; 0x10000000
 800121e:	9301      	str	r3, [sp, #4]
 8001220:	9b01      	ldr	r3, [sp, #4]
 8001222:	2701      	movs	r7, #1
 8001224:	4e45      	ldr	r6, [pc, #276]	; (800133c <HAL_RCC_OscConfig+0x2f0>)
 8001226:	6833      	ldr	r3, [r6, #0]
 8001228:	05db      	lsls	r3, r3, #23
 800122a:	d51b      	bpl.n	8001264 <HAL_RCC_OscConfig+0x218>
 800122c:	68a3      	ldr	r3, [r4, #8]
 800122e:	2b01      	cmp	r3, #1
 8001230:	d129      	bne.n	8001286 <HAL_RCC_OscConfig+0x23a>
 8001232:	f8d5 3090 	ldr.w	r3, [r5, #144]	; 0x90
 8001236:	f043 0301 	orr.w	r3, r3, #1
 800123a:	f8c5 3090 	str.w	r3, [r5, #144]	; 0x90
 800123e:	f7ff fa91 	bl	8000764 <HAL_GetTick>
 8001242:	f241 3888 	movw	r8, #5000	; 0x1388
 8001246:	4606      	mov	r6, r0
 8001248:	f8d5 3090 	ldr.w	r3, [r5, #144]	; 0x90
 800124c:	0799      	lsls	r1, r3, #30
 800124e:	d540      	bpl.n	80012d2 <HAL_RCC_OscConfig+0x286>
 8001250:	2f00      	cmp	r7, #0
 8001252:	f43f af0f 	beq.w	8001074 <HAL_RCC_OscConfig+0x28>
 8001256:	6dab      	ldr	r3, [r5, #88]	; 0x58
 8001258:	f023 5380 	bic.w	r3, r3, #268435456	; 0x10000000
 800125c:	65ab      	str	r3, [r5, #88]	; 0x58
 800125e:	e709      	b.n	8001074 <HAL_RCC_OscConfig+0x28>
 8001260:	2700      	movs	r7, #0
 8001262:	e7df      	b.n	8001224 <HAL_RCC_OscConfig+0x1d8>
 8001264:	6833      	ldr	r3, [r6, #0]
 8001266:	f443 7380 	orr.w	r3, r3, #256	; 0x100
 800126a:	6033      	str	r3, [r6, #0]
 800126c:	f7ff fa7a 	bl	8000764 <HAL_GetTick>
 8001270:	4680      	mov	r8, r0
 8001272:	6833      	ldr	r3, [r6, #0]
 8001274:	05d8      	lsls	r0, r3, #23
 8001276:	d4d9      	bmi.n	800122c <HAL_RCC_OscConfig+0x1e0>
 8001278:	f7ff fa74 	bl	8000764 <HAL_GetTick>
 800127c:	eba0 0008 	sub.w	r0, r0, r8
 8001280:	2802      	cmp	r0, #2
 8001282:	d9f6      	bls.n	8001272 <HAL_RCC_OscConfig+0x226>
 8001284:	e727      	b.n	80010d6 <HAL_RCC_OscConfig+0x8a>
 8001286:	2b05      	cmp	r3, #5
 8001288:	d106      	bne.n	8001298 <HAL_RCC_OscConfig+0x24c>
 800128a:	f8d5 3090 	ldr.w	r3, [r5, #144]	; 0x90
 800128e:	f043 0304 	orr.w	r3, r3, #4
 8001292:	f8c5 3090 	str.w	r3, [r5, #144]	; 0x90
 8001296:	e7cc      	b.n	8001232 <HAL_RCC_OscConfig+0x1e6>
 8001298:	f8d5 2090 	ldr.w	r2, [r5, #144]	; 0x90
 800129c:	f022 0201 	bic.w	r2, r2, #1
 80012a0:	f8c5 2090 	str.w	r2, [r5, #144]	; 0x90
 80012a4:	f8d5 2090 	ldr.w	r2, [r5, #144]	; 0x90
 80012a8:	f022 0204 	bic.w	r2, r2, #4
 80012ac:	f8c5 2090 	str.w	r2, [r5, #144]	; 0x90
 80012b0:	2b00      	cmp	r3, #0
 80012b2:	d1c4      	bne.n	800123e <HAL_RCC_OscConfig+0x1f2>
 80012b4:	f7ff fa56 	bl	8000764 <HAL_GetTick>
 80012b8:	f241 3888 	movw	r8, #5000	; 0x1388
 80012bc:	4606      	mov	r6, r0
 80012be:	f8d5 3090 	ldr.w	r3, [r5, #144]	; 0x90
 80012c2:	079a      	lsls	r2, r3, #30
 80012c4:	d5c4      	bpl.n	8001250 <HAL_RCC_OscConfig+0x204>
 80012c6:	f7ff fa4d 	bl	8000764 <HAL_GetTick>
 80012ca:	1b80      	subs	r0, r0, r6
 80012cc:	4540      	cmp	r0, r8
 80012ce:	d9f6      	bls.n	80012be <HAL_RCC_OscConfig+0x272>
 80012d0:	e701      	b.n	80010d6 <HAL_RCC_OscConfig+0x8a>
 80012d2:	f7ff fa47 	bl	8000764 <HAL_GetTick>
 80012d6:	1b80      	subs	r0, r0, r6
 80012d8:	4540      	cmp	r0, r8
 80012da:	d9b5      	bls.n	8001248 <HAL_RCC_OscConfig+0x1fc>
 80012dc:	e6fb      	b.n	80010d6 <HAL_RCC_OscConfig+0x8a>
 80012de:	69a3      	ldr	r3, [r4, #24]
 80012e0:	4d14      	ldr	r5, [pc, #80]	; (8001334 <HAL_RCC_OscConfig+0x2e8>)
 80012e2:	b19b      	cbz	r3, 800130c <HAL_RCC_OscConfig+0x2c0>
 80012e4:	f8d5 3098 	ldr.w	r3, [r5, #152]	; 0x98
 80012e8:	f043 0301 	orr.w	r3, r3, #1
 80012ec:	f8c5 3098 	str.w	r3, [r5, #152]	; 0x98
 80012f0:	f7ff fa38 	bl	8000764 <HAL_GetTick>
 80012f4:	4606      	mov	r6, r0
 80012f6:	f8d5 3098 	ldr.w	r3, [r5, #152]	; 0x98
 80012fa:	079f      	lsls	r7, r3, #30
 80012fc:	f53f aebe 	bmi.w	800107c <HAL_RCC_OscConfig+0x30>
 8001300:	f7ff fa30 	bl	8000764 <HAL_GetTick>
 8001304:	1b80      	subs	r0, r0, r6
 8001306:	2802      	cmp	r0, #2
 8001308:	d9f5      	bls.n	80012f6 <HAL_RCC_OscConfig+0x2aa>
 800130a:	e6e4      	b.n	80010d6 <HAL_RCC_OscConfig+0x8a>
 800130c:	f8d5 3098 	ldr.w	r3, [r5, #152]	; 0x98
 8001310:	f023 0301 	bic.w	r3, r3, #1
 8001314:	f8c5 3098 	str.w	r3, [r5, #152]	; 0x98
 8001318:	f7ff fa24 	bl	8000764 <HAL_GetTick>
 800131c:	4606      	mov	r6, r0
 800131e:	f8d5 3098 	ldr.w	r3, [r5, #152]	; 0x98
 8001322:	0798      	lsls	r0, r3, #30
 8001324:	f57f aeaa 	bpl.w	800107c <HAL_RCC_OscConfig+0x30>
 8001328:	f7ff fa1c 	bl	8000764 <HAL_GetTick>
 800132c:	1b80      	subs	r0, r0, r6
 800132e:	2802      	cmp	r0, #2
 8001330:	d9f5      	bls.n	800131e <HAL_RCC_OscConfig+0x2d2>
 8001332:	e6d0      	b.n	80010d6 <HAL_RCC_OscConfig+0x8a>
 8001334:	40021000 	.word	0x40021000
 8001338:	20000008 	.word	0x20000008
 800133c:	40007000 	.word	0x40007000
 8001340:	4b49      	ldr	r3, [pc, #292]	; (8001468 <HAL_RCC_OscConfig+0x41c>)
 8001342:	689a      	ldr	r2, [r3, #8]
 8001344:	f002 020c 	and.w	r2, r2, #12
 8001348:	2a0c      	cmp	r2, #12
 800134a:	461d      	mov	r5, r3
 800134c:	d057      	beq.n	80013fe <HAL_RCC_OscConfig+0x3b2>
 800134e:	681b      	ldr	r3, [r3, #0]
 8001350:	2802      	cmp	r0, #2
 8001352:	f023 7380 	bic.w	r3, r3, #16777216	; 0x1000000
 8001356:	602b      	str	r3, [r5, #0]
 8001358:	d13a      	bne.n	80013d0 <HAL_RCC_OscConfig+0x384>
 800135a:	f7ff fa03 	bl	8000764 <HAL_GetTick>
 800135e:	4606      	mov	r6, r0
 8001360:	682b      	ldr	r3, [r5, #0]
 8001362:	0199      	lsls	r1, r3, #6
 8001364:	d42e      	bmi.n	80013c4 <HAL_RCC_OscConfig+0x378>
 8001366:	68ea      	ldr	r2, [r5, #12]
 8001368:	4b40      	ldr	r3, [pc, #256]	; (800146c <HAL_RCC_OscConfig+0x420>)
 800136a:	4013      	ands	r3, r2
 800136c:	6a22      	ldr	r2, [r4, #32]
 800136e:	4313      	orrs	r3, r2
 8001370:	6aa2      	ldr	r2, [r4, #40]	; 0x28
 8001372:	ea43 2302 	orr.w	r3, r3, r2, lsl #8
 8001376:	6ae2      	ldr	r2, [r4, #44]	; 0x2c
 8001378:	ea43 63c2 	orr.w	r3, r3, r2, lsl #27
 800137c:	6a62      	ldr	r2, [r4, #36]	; 0x24
 800137e:	3a01      	subs	r2, #1
 8001380:	ea43 1302 	orr.w	r3, r3, r2, lsl #4
 8001384:	6b22      	ldr	r2, [r4, #48]	; 0x30
 8001386:	0852      	lsrs	r2, r2, #1
 8001388:	3a01      	subs	r2, #1
 800138a:	ea43 5342 	orr.w	r3, r3, r2, lsl #21
 800138e:	6b62      	ldr	r2, [r4, #52]	; 0x34
 8001390:	0852      	lsrs	r2, r2, #1
 8001392:	3a01      	subs	r2, #1
 8001394:	ea43 6342 	orr.w	r3, r3, r2, lsl #25
 8001398:	60eb      	str	r3, [r5, #12]
 800139a:	682b      	ldr	r3, [r5, #0]
 800139c:	f043 7380 	orr.w	r3, r3, #16777216	; 0x1000000
 80013a0:	602b      	str	r3, [r5, #0]
 80013a2:	68eb      	ldr	r3, [r5, #12]
 80013a4:	f043 7380 	orr.w	r3, r3, #16777216	; 0x1000000
 80013a8:	60eb      	str	r3, [r5, #12]
 80013aa:	f7ff f9db 	bl	8000764 <HAL_GetTick>
 80013ae:	4604      	mov	r4, r0
 80013b0:	682b      	ldr	r3, [r5, #0]
 80013b2:	019a      	lsls	r2, r3, #6
 80013b4:	f53f ae66 	bmi.w	8001084 <HAL_RCC_OscConfig+0x38>
 80013b8:	f7ff f9d4 	bl	8000764 <HAL_GetTick>
 80013bc:	1b00      	subs	r0, r0, r4
 80013be:	2802      	cmp	r0, #2
 80013c0:	d9f6      	bls.n	80013b0 <HAL_RCC_OscConfig+0x364>
 80013c2:	e688      	b.n	80010d6 <HAL_RCC_OscConfig+0x8a>
 80013c4:	f7ff f9ce 	bl	8000764 <HAL_GetTick>
 80013c8:	1b80      	subs	r0, r0, r6
 80013ca:	2802      	cmp	r0, #2
 80013cc:	d9c8      	bls.n	8001360 <HAL_RCC_OscConfig+0x314>
 80013ce:	e682      	b.n	80010d6 <HAL_RCC_OscConfig+0x8a>
 80013d0:	68eb      	ldr	r3, [r5, #12]
 80013d2:	f023 0303 	bic.w	r3, r3, #3
 80013d6:	60eb      	str	r3, [r5, #12]
 80013d8:	68eb      	ldr	r3, [r5, #12]
 80013da:	f023 7388 	bic.w	r3, r3, #17825792	; 0x1100000
 80013de:	f423 3380 	bic.w	r3, r3, #65536	; 0x10000
 80013e2:	60eb      	str	r3, [r5, #12]
 80013e4:	f7ff f9be 	bl	8000764 <HAL_GetTick>
 80013e8:	4604      	mov	r4, r0
 80013ea:	682b      	ldr	r3, [r5, #0]
 80013ec:	019b      	lsls	r3, r3, #6
 80013ee:	f57f ae49 	bpl.w	8001084 <HAL_RCC_OscConfig+0x38>
 80013f2:	f7ff f9b7 	bl	8000764 <HAL_GetTick>
 80013f6:	1b00      	subs	r0, r0, r4
 80013f8:	2802      	cmp	r0, #2
 80013fa:	d9f6      	bls.n	80013ea <HAL_RCC_OscConfig+0x39e>
 80013fc:	e66b      	b.n	80010d6 <HAL_RCC_OscConfig+0x8a>
 80013fe:	2801      	cmp	r0, #1
 8001400:	f43f ae6a 	beq.w	80010d8 <HAL_RCC_OscConfig+0x8c>
 8001404:	68db      	ldr	r3, [r3, #12]
 8001406:	6a22      	ldr	r2, [r4, #32]
 8001408:	f003 0103 	and.w	r1, r3, #3
 800140c:	4291      	cmp	r1, r2
 800140e:	f47f ae21 	bne.w	8001054 <HAL_RCC_OscConfig+0x8>
 8001412:	6a61      	ldr	r1, [r4, #36]	; 0x24
 8001414:	f003 02f0 	and.w	r2, r3, #240	; 0xf0
 8001418:	3901      	subs	r1, #1
 800141a:	ebb2 1f01 	cmp.w	r2, r1, lsl #4
 800141e:	f47f ae19 	bne.w	8001054 <HAL_RCC_OscConfig+0x8>
 8001422:	6aa1      	ldr	r1, [r4, #40]	; 0x28
 8001424:	f403 42fe 	and.w	r2, r3, #32512	; 0x7f00
 8001428:	ebb2 2f01 	cmp.w	r2, r1, lsl #8
 800142c:	f47f ae12 	bne.w	8001054 <HAL_RCC_OscConfig+0x8>
 8001430:	6ae1      	ldr	r1, [r4, #44]	; 0x2c
 8001432:	f003 4278 	and.w	r2, r3, #4160749568	; 0xf8000000
 8001436:	ebb2 6fc1 	cmp.w	r2, r1, lsl #27
 800143a:	f47f ae0b 	bne.w	8001054 <HAL_RCC_OscConfig+0x8>
 800143e:	6b22      	ldr	r2, [r4, #48]	; 0x30
 8001440:	0852      	lsrs	r2, r2, #1
 8001442:	f403 01c0 	and.w	r1, r3, #6291456	; 0x600000
 8001446:	3a01      	subs	r2, #1
 8001448:	ebb1 5f42 	cmp.w	r1, r2, lsl #21
 800144c:	f47f ae02 	bne.w	8001054 <HAL_RCC_OscConfig+0x8>
 8001450:	6b62      	ldr	r2, [r4, #52]	; 0x34
 8001452:	0852      	lsrs	r2, r2, #1
 8001454:	3a01      	subs	r2, #1
 8001456:	f003 63c0 	and.w	r3, r3, #100663296	; 0x6000000
 800145a:	ebb3 6f42 	cmp.w	r3, r2, lsl #25
 800145e:	bf14      	ite	ne
 8001460:	2001      	movne	r0, #1
 8001462:	2000      	moveq	r0, #0
 8001464:	e638      	b.n	80010d8 <HAL_RCC_OscConfig+0x8c>
 8001466:	bf00      	nop
 8001468:	40021000 	.word	0x40021000
 800146c:	019f800c 	.word	0x019f800c

08001470 <HAL_RCC_GetSysClockFreq>:
 8001470:	4b18      	ldr	r3, [pc, #96]	; (80014d4 <HAL_RCC_GetSysClockFreq+0x64>)
 8001472:	689a      	ldr	r2, [r3, #8]
 8001474:	f002 020c 	and.w	r2, r2, #12
 8001478:	2a04      	cmp	r2, #4
 800147a:	d025      	beq.n	80014c8 <HAL_RCC_GetSysClockFreq+0x58>
 800147c:	689a      	ldr	r2, [r3, #8]
 800147e:	f002 020c 	and.w	r2, r2, #12
 8001482:	2a08      	cmp	r2, #8
 8001484:	d022      	beq.n	80014cc <HAL_RCC_GetSysClockFreq+0x5c>
 8001486:	689a      	ldr	r2, [r3, #8]
 8001488:	f002 020c 	and.w	r2, r2, #12
 800148c:	2a0c      	cmp	r2, #12
 800148e:	d11f      	bne.n	80014d0 <HAL_RCC_GetSysClockFreq+0x60>
 8001490:	68d9      	ldr	r1, [r3, #12]
 8001492:	68d8      	ldr	r0, [r3, #12]
 8001494:	f001 0103 	and.w	r1, r1, #3
 8001498:	2903      	cmp	r1, #3
 800149a:	68d9      	ldr	r1, [r3, #12]
 800149c:	68db      	ldr	r3, [r3, #12]
 800149e:	f3c3 6341 	ubfx	r3, r3, #25, #2
 80014a2:	f3c0 1003 	ubfx	r0, r0, #4, #4
 80014a6:	f3c1 2106 	ubfx	r1, r1, #8, #7
 80014aa:	f103 0301 	add.w	r3, r3, #1
 80014ae:	f100 0201 	add.w	r2, r0, #1
 80014b2:	ea4f 0343 	mov.w	r3, r3, lsl #1
 80014b6:	bf0c      	ite	eq
 80014b8:	4807      	ldreq	r0, [pc, #28]	; (80014d8 <HAL_RCC_GetSysClockFreq+0x68>)
 80014ba:	4808      	ldrne	r0, [pc, #32]	; (80014dc <HAL_RCC_GetSysClockFreq+0x6c>)
 80014bc:	fbb0 f0f2 	udiv	r0, r0, r2
 80014c0:	4348      	muls	r0, r1
 80014c2:	fbb0 f0f3 	udiv	r0, r0, r3
 80014c6:	4770      	bx	lr
 80014c8:	4804      	ldr	r0, [pc, #16]	; (80014dc <HAL_RCC_GetSysClockFreq+0x6c>)
 80014ca:	4770      	bx	lr
 80014cc:	4802      	ldr	r0, [pc, #8]	; (80014d8 <HAL_RCC_GetSysClockFreq+0x68>)
 80014ce:	4770      	bx	lr
 80014d0:	2000      	movs	r0, #0
 80014d2:	4770      	bx	lr
 80014d4:	40021000 	.word	0x40021000
 80014d8:	007a1200 	.word	0x007a1200
 80014dc:	00f42400 	.word	0x00f42400

080014e0 <HAL_RCC_ClockConfig>:
 80014e0:	e92d 43f8 	stmdb	sp!, {r3, r4, r5, r6, r7, r8, r9, lr}
 80014e4:	460d      	mov	r5, r1
 80014e6:	4606      	mov	r6, r0
 80014e8:	b910      	cbnz	r0, 80014f0 <HAL_RCC_ClockConfig+0x10>
 80014ea:	2001      	movs	r0, #1
 80014ec:	e8bd 83f8 	ldmia.w	sp!, {r3, r4, r5, r6, r7, r8, r9, pc}
 80014f0:	4a6d      	ldr	r2, [pc, #436]	; (80016a8 <HAL_RCC_ClockConfig+0x1c8>)
 80014f2:	6813      	ldr	r3, [r2, #0]
 80014f4:	f003 030f 	and.w	r3, r3, #15
 80014f8:	428b      	cmp	r3, r1
 80014fa:	d345      	bcc.n	8001588 <HAL_RCC_ClockConfig+0xa8>
 80014fc:	6831      	ldr	r1, [r6, #0]
 80014fe:	f011 0701 	ands.w	r7, r1, #1
 8001502:	d14c      	bne.n	800159e <HAL_RCC_ClockConfig+0xbe>
 8001504:	6832      	ldr	r2, [r6, #0]
 8001506:	0791      	lsls	r1, r2, #30
 8001508:	f140 80a8 	bpl.w	800165c <HAL_RCC_ClockConfig+0x17c>
 800150c:	4b67      	ldr	r3, [pc, #412]	; (80016ac <HAL_RCC_ClockConfig+0x1cc>)
 800150e:	f012 0f04 	tst.w	r2, #4
 8001512:	bf1e      	ittt	ne
 8001514:	6899      	ldrne	r1, [r3, #8]
 8001516:	f441 61e0 	orrne.w	r1, r1, #1792	; 0x700
 800151a:	6099      	strne	r1, [r3, #8]
 800151c:	0712      	lsls	r2, r2, #28
 800151e:	bf41      	itttt	mi
 8001520:	689a      	ldrmi	r2, [r3, #8]
 8001522:	f422 527c 	bicmi.w	r2, r2, #16128	; 0x3f00
 8001526:	f442 62e0 	orrmi.w	r2, r2, #1792	; 0x700
 800152a:	609a      	strmi	r2, [r3, #8]
 800152c:	689a      	ldr	r2, [r3, #8]
 800152e:	68b1      	ldr	r1, [r6, #8]
 8001530:	f022 02f0 	bic.w	r2, r2, #240	; 0xf0
 8001534:	430a      	orrs	r2, r1
 8001536:	609a      	str	r2, [r3, #8]
 8001538:	4c5b      	ldr	r4, [pc, #364]	; (80016a8 <HAL_RCC_ClockConfig+0x1c8>)
 800153a:	6823      	ldr	r3, [r4, #0]
 800153c:	f003 030f 	and.w	r3, r3, #15
 8001540:	42ab      	cmp	r3, r5
 8001542:	f200 8094 	bhi.w	800166e <HAL_RCC_ClockConfig+0x18e>
 8001546:	6832      	ldr	r2, [r6, #0]
 8001548:	4c58      	ldr	r4, [pc, #352]	; (80016ac <HAL_RCC_ClockConfig+0x1cc>)
 800154a:	f012 0f04 	tst.w	r2, #4
 800154e:	f040 80a4 	bne.w	800169a <HAL_RCC_ClockConfig+0x1ba>
 8001552:	0713      	lsls	r3, r2, #28
 8001554:	d506      	bpl.n	8001564 <HAL_RCC_ClockConfig+0x84>
 8001556:	68a3      	ldr	r3, [r4, #8]
 8001558:	6932      	ldr	r2, [r6, #16]
 800155a:	f423 5360 	bic.w	r3, r3, #14336	; 0x3800
 800155e:	ea43 03c2 	orr.w	r3, r3, r2, lsl #3
 8001562:	60a3      	str	r3, [r4, #8]
 8001564:	f7ff ff84 	bl	8001470 <HAL_RCC_GetSysClockFreq>
 8001568:	68a3      	ldr	r3, [r4, #8]
 800156a:	4a51      	ldr	r2, [pc, #324]	; (80016b0 <HAL_RCC_ClockConfig+0x1d0>)
 800156c:	f3c3 1303 	ubfx	r3, r3, #4, #4
 8001570:	5cd3      	ldrb	r3, [r2, r3]
 8001572:	f003 031f 	and.w	r3, r3, #31
 8001576:	40d8      	lsrs	r0, r3
 8001578:	4b4e      	ldr	r3, [pc, #312]	; (80016b4 <HAL_RCC_ClockConfig+0x1d4>)
 800157a:	6018      	str	r0, [r3, #0]
 800157c:	4b4e      	ldr	r3, [pc, #312]	; (80016b8 <HAL_RCC_ClockConfig+0x1d8>)
 800157e:	6818      	ldr	r0, [r3, #0]
 8001580:	e8bd 43f8 	ldmia.w	sp!, {r3, r4, r5, r6, r7, r8, r9, lr}
 8001584:	f7ff b8ac 	b.w	80006e0 <HAL_InitTick>
 8001588:	6813      	ldr	r3, [r2, #0]
 800158a:	f023 030f 	bic.w	r3, r3, #15
 800158e:	430b      	orrs	r3, r1
 8001590:	6013      	str	r3, [r2, #0]
 8001592:	6813      	ldr	r3, [r2, #0]
 8001594:	f003 030f 	and.w	r3, r3, #15
 8001598:	428b      	cmp	r3, r1
 800159a:	d1a6      	bne.n	80014ea <HAL_RCC_ClockConfig+0xa>
 800159c:	e7ae      	b.n	80014fc <HAL_RCC_ClockConfig+0x1c>
 800159e:	6873      	ldr	r3, [r6, #4]
 80015a0:	4c42      	ldr	r4, [pc, #264]	; (80016ac <HAL_RCC_ClockConfig+0x1cc>)
 80015a2:	2b03      	cmp	r3, #3
 80015a4:	d14a      	bne.n	800163c <HAL_RCC_ClockConfig+0x15c>
 80015a6:	6823      	ldr	r3, [r4, #0]
 80015a8:	019f      	lsls	r7, r3, #6
 80015aa:	d59e      	bpl.n	80014ea <HAL_RCC_ClockConfig+0xa>
 80015ac:	68e0      	ldr	r0, [r4, #12]
 80015ae:	68e3      	ldr	r3, [r4, #12]
 80015b0:	f3c3 1303 	ubfx	r3, r3, #4, #4
 80015b4:	1c5a      	adds	r2, r3, #1
 80015b6:	f000 0303 	and.w	r3, r0, #3
 80015ba:	2b03      	cmp	r3, #3
 80015bc:	68e0      	ldr	r0, [r4, #12]
 80015be:	bf0c      	ite	eq
 80015c0:	4b3e      	ldreq	r3, [pc, #248]	; (80016bc <HAL_RCC_ClockConfig+0x1dc>)
 80015c2:	4b3f      	ldrne	r3, [pc, #252]	; (80016c0 <HAL_RCC_ClockConfig+0x1e0>)
 80015c4:	fbb3 f3f2 	udiv	r3, r3, r2
 80015c8:	68e2      	ldr	r2, [r4, #12]
 80015ca:	f3c2 6241 	ubfx	r2, r2, #25, #2
 80015ce:	f3c0 2006 	ubfx	r0, r0, #8, #7
 80015d2:	3201      	adds	r2, #1
 80015d4:	0052      	lsls	r2, r2, #1
 80015d6:	4343      	muls	r3, r0
 80015d8:	fbb3 f3f2 	udiv	r3, r3, r2
 80015dc:	4a39      	ldr	r2, [pc, #228]	; (80016c4 <HAL_RCC_ClockConfig+0x1e4>)
 80015de:	4293      	cmp	r3, r2
 80015e0:	d81b      	bhi.n	800161a <HAL_RCC_ClockConfig+0x13a>
 80015e2:	2700      	movs	r7, #0
 80015e4:	68a3      	ldr	r3, [r4, #8]
 80015e6:	6872      	ldr	r2, [r6, #4]
 80015e8:	f023 0303 	bic.w	r3, r3, #3
 80015ec:	4313      	orrs	r3, r2
 80015ee:	60a3      	str	r3, [r4, #8]
 80015f0:	f7ff f8b8 	bl	8000764 <HAL_GetTick>
 80015f4:	f241 3988 	movw	r9, #5000	; 0x1388
 80015f8:	4680      	mov	r8, r0
 80015fa:	68a3      	ldr	r3, [r4, #8]
 80015fc:	6872      	ldr	r2, [r6, #4]
 80015fe:	f003 030c 	and.w	r3, r3, #12
 8001602:	ebb3 0f82 	cmp.w	r3, r2, lsl #2
 8001606:	f43f af7d 	beq.w	8001504 <HAL_RCC_ClockConfig+0x24>
 800160a:	f7ff f8ab 	bl	8000764 <HAL_GetTick>
 800160e:	eba0 0008 	sub.w	r0, r0, r8
 8001612:	4548      	cmp	r0, r9
 8001614:	d9f1      	bls.n	80015fa <HAL_RCC_ClockConfig+0x11a>
 8001616:	2003      	movs	r0, #3
 8001618:	e768      	b.n	80014ec <HAL_RCC_ClockConfig+0xc>
 800161a:	68a3      	ldr	r3, [r4, #8]
 800161c:	f013 0ff0 	tst.w	r3, #240	; 0xf0
 8001620:	d004      	beq.n	800162c <HAL_RCC_ClockConfig+0x14c>
 8001622:	0788      	lsls	r0, r1, #30
 8001624:	d5dd      	bpl.n	80015e2 <HAL_RCC_ClockConfig+0x102>
 8001626:	68b3      	ldr	r3, [r6, #8]
 8001628:	2b00      	cmp	r3, #0
 800162a:	d1da      	bne.n	80015e2 <HAL_RCC_ClockConfig+0x102>
 800162c:	68a3      	ldr	r3, [r4, #8]
 800162e:	f023 03f0 	bic.w	r3, r3, #240	; 0xf0
 8001632:	f043 0380 	orr.w	r3, r3, #128	; 0x80
 8001636:	60a3      	str	r3, [r4, #8]
 8001638:	2780      	movs	r7, #128	; 0x80
 800163a:	e7d3      	b.n	80015e4 <HAL_RCC_ClockConfig+0x104>
 800163c:	2b02      	cmp	r3, #2
 800163e:	6823      	ldr	r3, [r4, #0]
 8001640:	d109      	bne.n	8001656 <HAL_RCC_ClockConfig+0x176>
 8001642:	f413 3f00 	tst.w	r3, #131072	; 0x20000
 8001646:	f43f af50 	beq.w	80014ea <HAL_RCC_ClockConfig+0xa>
 800164a:	f7ff ff11 	bl	8001470 <HAL_RCC_GetSysClockFreq>
 800164e:	4b1d      	ldr	r3, [pc, #116]	; (80016c4 <HAL_RCC_ClockConfig+0x1e4>)
 8001650:	4298      	cmp	r0, r3
 8001652:	d9c6      	bls.n	80015e2 <HAL_RCC_ClockConfig+0x102>
 8001654:	e7ea      	b.n	800162c <HAL_RCC_ClockConfig+0x14c>
 8001656:	f413 6f80 	tst.w	r3, #1024	; 0x400
 800165a:	e7f4      	b.n	8001646 <HAL_RCC_ClockConfig+0x166>
 800165c:	2f00      	cmp	r7, #0
 800165e:	f43f af6b 	beq.w	8001538 <HAL_RCC_ClockConfig+0x58>
 8001662:	4a12      	ldr	r2, [pc, #72]	; (80016ac <HAL_RCC_ClockConfig+0x1cc>)
 8001664:	6893      	ldr	r3, [r2, #8]
 8001666:	f023 03f0 	bic.w	r3, r3, #240	; 0xf0
 800166a:	6093      	str	r3, [r2, #8]
 800166c:	e764      	b.n	8001538 <HAL_RCC_ClockConfig+0x58>
 800166e:	6823      	ldr	r3, [r4, #0]
 8001670:	f023 030f 	bic.w	r3, r3, #15
 8001674:	432b      	orrs	r3, r5
 8001676:	6023      	str	r3, [r4, #0]
 8001678:	f7ff f874 	bl	8000764 <HAL_GetTick>
 800167c:	f241 3888 	movw	r8, #5000	; 0x1388
 8001680:	4607      	mov	r7, r0
 8001682:	6823      	ldr	r3, [r4, #0]
 8001684:	f003 030f 	and.w	r3, r3, #15
 8001688:	42ab      	cmp	r3, r5
 800168a:	f43f af5c 	beq.w	8001546 <HAL_RCC_ClockConfig+0x66>
 800168e:	f7ff f869 	bl	8000764 <HAL_GetTick>
 8001692:	1bc0      	subs	r0, r0, r7
 8001694:	4540      	cmp	r0, r8
 8001696:	d9f4      	bls.n	8001682 <HAL_RCC_ClockConfig+0x1a2>
 8001698:	e7bd      	b.n	8001616 <HAL_RCC_ClockConfig+0x136>
 800169a:	68a3      	ldr	r3, [r4, #8]
 800169c:	68f1      	ldr	r1, [r6, #12]
 800169e:	f423 63e0 	bic.w	r3, r3, #1792	; 0x700
 80016a2:	430b      	orrs	r3, r1
 80016a4:	60a3      	str	r3, [r4, #8]
 80016a6:	e754      	b.n	8001552 <HAL_RCC_ClockConfig+0x72>
 80016a8:	40022000 	.word	0x40022000
 80016ac:	40021000 	.word	0x40021000
 80016b0:	08001a38 	.word	0x08001a38
 80016b4:	20000000 	.word	0x20000000
 80016b8:	20000008 	.word	0x20000008
 80016bc:	007a1200 	.word	0x007a1200
 80016c0:	00f42400 	.word	0x00f42400
 80016c4:	04c4b400 	.word	0x04c4b400

080016c8 <HAL_RCCEx_PeriphCLKConfig>:
 80016c8:	e92d 41f3 	stmdb	sp!, {r0, r1, r4, r5, r6, r7, r8, lr}
 80016cc:	4604      	mov	r4, r0
 80016ce:	6800      	ldr	r0, [r0, #0]
 80016d0:	f410 2000 	ands.w	r0, r0, #524288	; 0x80000
 80016d4:	d04d      	beq.n	8001772 <HAL_RCCEx_PeriphCLKConfig+0xaa>
 80016d6:	4db5      	ldr	r5, [pc, #724]	; (80019ac <HAL_RCCEx_PeriphCLKConfig+0x2e4>)
 80016d8:	6dab      	ldr	r3, [r5, #88]	; 0x58
 80016da:	00d8      	lsls	r0, r3, #3
 80016dc:	d43b      	bmi.n	8001756 <HAL_RCCEx_PeriphCLKConfig+0x8e>
 80016de:	6dab      	ldr	r3, [r5, #88]	; 0x58
 80016e0:	f043 5380 	orr.w	r3, r3, #268435456	; 0x10000000
 80016e4:	65ab      	str	r3, [r5, #88]	; 0x58
 80016e6:	6dab      	ldr	r3, [r5, #88]	; 0x58
 80016e8:	f003 5380 	and.w	r3, r3, #268435456	; 0x10000000
 80016ec:	9301      	str	r3, [sp, #4]
 80016ee:	9b01      	ldr	r3, [sp, #4]
 80016f0:	2601      	movs	r6, #1
 80016f2:	4faf      	ldr	r7, [pc, #700]	; (80019b0 <HAL_RCCEx_PeriphCLKConfig+0x2e8>)
 80016f4:	683b      	ldr	r3, [r7, #0]
 80016f6:	f443 7380 	orr.w	r3, r3, #256	; 0x100
 80016fa:	603b      	str	r3, [r7, #0]
 80016fc:	f7ff f832 	bl	8000764 <HAL_GetTick>
 8001700:	4680      	mov	r8, r0
 8001702:	683b      	ldr	r3, [r7, #0]
 8001704:	05d9      	lsls	r1, r3, #23
 8001706:	d528      	bpl.n	800175a <HAL_RCCEx_PeriphCLKConfig+0x92>
 8001708:	f8d5 3090 	ldr.w	r3, [r5, #144]	; 0x90
 800170c:	f413 7340 	ands.w	r3, r3, #768	; 0x300
 8001710:	d014      	beq.n	800173c <HAL_RCCEx_PeriphCLKConfig+0x74>
 8001712:	6d22      	ldr	r2, [r4, #80]	; 0x50
 8001714:	429a      	cmp	r2, r3
 8001716:	d011      	beq.n	800173c <HAL_RCCEx_PeriphCLKConfig+0x74>
 8001718:	f8d5 3090 	ldr.w	r3, [r5, #144]	; 0x90
 800171c:	f8d5 2090 	ldr.w	r2, [r5, #144]	; 0x90
 8001720:	f442 3280 	orr.w	r2, r2, #65536	; 0x10000
 8001724:	f8c5 2090 	str.w	r2, [r5, #144]	; 0x90
 8001728:	f8d5 2090 	ldr.w	r2, [r5, #144]	; 0x90
 800172c:	f423 7340 	bic.w	r3, r3, #768	; 0x300
 8001730:	f422 3280 	bic.w	r2, r2, #65536	; 0x10000
 8001734:	f8c5 2090 	str.w	r2, [r5, #144]	; 0x90
 8001738:	f8c5 3090 	str.w	r3, [r5, #144]	; 0x90
 800173c:	07da      	lsls	r2, r3, #31
 800173e:	f100 8125 	bmi.w	800198c <HAL_RCCEx_PeriphCLKConfig+0x2c4>
 8001742:	f8d5 3090 	ldr.w	r3, [r5, #144]	; 0x90
 8001746:	6d22      	ldr	r2, [r4, #80]	; 0x50
 8001748:	f423 7340 	bic.w	r3, r3, #768	; 0x300
 800174c:	4313      	orrs	r3, r2
 800174e:	f8c5 3090 	str.w	r3, [r5, #144]	; 0x90
 8001752:	2000      	movs	r0, #0
 8001754:	e008      	b.n	8001768 <HAL_RCCEx_PeriphCLKConfig+0xa0>
 8001756:	2600      	movs	r6, #0
 8001758:	e7cb      	b.n	80016f2 <HAL_RCCEx_PeriphCLKConfig+0x2a>
 800175a:	f7ff f803 	bl	8000764 <HAL_GetTick>
 800175e:	eba0 0008 	sub.w	r0, r0, r8
 8001762:	2802      	cmp	r0, #2
 8001764:	d9cd      	bls.n	8001702 <HAL_RCCEx_PeriphCLKConfig+0x3a>
 8001766:	2003      	movs	r0, #3
 8001768:	b11e      	cbz	r6, 8001772 <HAL_RCCEx_PeriphCLKConfig+0xaa>
 800176a:	6dab      	ldr	r3, [r5, #88]	; 0x58
 800176c:	f023 5380 	bic.w	r3, r3, #268435456	; 0x10000000
 8001770:	65ab      	str	r3, [r5, #88]	; 0x58
 8001772:	6823      	ldr	r3, [r4, #0]
 8001774:	07dd      	lsls	r5, r3, #31
 8001776:	d508      	bpl.n	800178a <HAL_RCCEx_PeriphCLKConfig+0xc2>
 8001778:	498c      	ldr	r1, [pc, #560]	; (80019ac <HAL_RCCEx_PeriphCLKConfig+0x2e4>)
 800177a:	6865      	ldr	r5, [r4, #4]
 800177c:	f8d1 2088 	ldr.w	r2, [r1, #136]	; 0x88
 8001780:	f022 0203 	bic.w	r2, r2, #3
 8001784:	432a      	orrs	r2, r5
 8001786:	f8c1 2088 	str.w	r2, [r1, #136]	; 0x88
 800178a:	0799      	lsls	r1, r3, #30
 800178c:	d508      	bpl.n	80017a0 <HAL_RCCEx_PeriphCLKConfig+0xd8>
 800178e:	4987      	ldr	r1, [pc, #540]	; (80019ac <HAL_RCCEx_PeriphCLKConfig+0x2e4>)
 8001790:	68a5      	ldr	r5, [r4, #8]
 8001792:	f8d1 2088 	ldr.w	r2, [r1, #136]	; 0x88
 8001796:	f022 020c 	bic.w	r2, r2, #12
 800179a:	432a      	orrs	r2, r5
 800179c:	f8c1 2088 	str.w	r2, [r1, #136]	; 0x88
 80017a0:	075a      	lsls	r2, r3, #29
 80017a2:	d508      	bpl.n	80017b6 <HAL_RCCEx_PeriphCLKConfig+0xee>
 80017a4:	4981      	ldr	r1, [pc, #516]	; (80019ac <HAL_RCCEx_PeriphCLKConfig+0x2e4>)
 80017a6:	68e5      	ldr	r5, [r4, #12]
 80017a8:	f8d1 2088 	ldr.w	r2, [r1, #136]	; 0x88
 80017ac:	f022 0230 	bic.w	r2, r2, #48	; 0x30
 80017b0:	432a      	orrs	r2, r5
 80017b2:	f8c1 2088 	str.w	r2, [r1, #136]	; 0x88
 80017b6:	071f      	lsls	r7, r3, #28
 80017b8:	d508      	bpl.n	80017cc <HAL_RCCEx_PeriphCLKConfig+0x104>
 80017ba:	497c      	ldr	r1, [pc, #496]	; (80019ac <HAL_RCCEx_PeriphCLKConfig+0x2e4>)
 80017bc:	6925      	ldr	r5, [r4, #16]
 80017be:	f8d1 2088 	ldr.w	r2, [r1, #136]	; 0x88
 80017c2:	f022 02c0 	bic.w	r2, r2, #192	; 0xc0
 80017c6:	432a      	orrs	r2, r5
 80017c8:	f8c1 2088 	str.w	r2, [r1, #136]	; 0x88
 80017cc:	06de      	lsls	r6, r3, #27
 80017ce:	d508      	bpl.n	80017e2 <HAL_RCCEx_PeriphCLKConfig+0x11a>
 80017d0:	4976      	ldr	r1, [pc, #472]	; (80019ac <HAL_RCCEx_PeriphCLKConfig+0x2e4>)
 80017d2:	6965      	ldr	r5, [r4, #20]
 80017d4:	f8d1 2088 	ldr.w	r2, [r1, #136]	; 0x88
 80017d8:	f422 7240 	bic.w	r2, r2, #768	; 0x300
 80017dc:	432a      	orrs	r2, r5
 80017de:	f8c1 2088 	str.w	r2, [r1, #136]	; 0x88
 80017e2:	069d      	lsls	r5, r3, #26
 80017e4:	d508      	bpl.n	80017f8 <HAL_RCCEx_PeriphCLKConfig+0x130>
 80017e6:	4971      	ldr	r1, [pc, #452]	; (80019ac <HAL_RCCEx_PeriphCLKConfig+0x2e4>)
 80017e8:	69a5      	ldr	r5, [r4, #24]
 80017ea:	f8d1 2088 	ldr.w	r2, [r1, #136]	; 0x88
 80017ee:	f422 6240 	bic.w	r2, r2, #3072	; 0xc00
 80017f2:	432a      	orrs	r2, r5
 80017f4:	f8c1 2088 	str.w	r2, [r1, #136]	; 0x88
 80017f8:	0659      	lsls	r1, r3, #25
 80017fa:	d508      	bpl.n	800180e <HAL_RCCEx_PeriphCLKConfig+0x146>
 80017fc:	496b      	ldr	r1, [pc, #428]	; (80019ac <HAL_RCCEx_PeriphCLKConfig+0x2e4>)
 80017fe:	69e5      	ldr	r5, [r4, #28]
 8001800:	f8d1 2088 	ldr.w	r2, [r1, #136]	; 0x88
 8001804:	f422 5240 	bic.w	r2, r2, #12288	; 0x3000
 8001808:	432a      	orrs	r2, r5
 800180a:	f8c1 2088 	str.w	r2, [r1, #136]	; 0x88
 800180e:	061a      	lsls	r2, r3, #24
 8001810:	d508      	bpl.n	8001824 <HAL_RCCEx_PeriphCLKConfig+0x15c>
 8001812:	4966      	ldr	r1, [pc, #408]	; (80019ac <HAL_RCCEx_PeriphCLKConfig+0x2e4>)
 8001814:	6a25      	ldr	r5, [r4, #32]
 8001816:	f8d1 2088 	ldr.w	r2, [r1, #136]	; 0x88
 800181a:	f422 4240 	bic.w	r2, r2, #49152	; 0xc000
 800181e:	432a      	orrs	r2, r5
 8001820:	f8c1 2088 	str.w	r2, [r1, #136]	; 0x88
 8001824:	05df      	lsls	r7, r3, #23
 8001826:	d508      	bpl.n	800183a <HAL_RCCEx_PeriphCLKConfig+0x172>
 8001828:	4960      	ldr	r1, [pc, #384]	; (80019ac <HAL_RCCEx_PeriphCLKConfig+0x2e4>)
 800182a:	6a65      	ldr	r5, [r4, #36]	; 0x24
 800182c:	f8d1 2088 	ldr.w	r2, [r1, #136]	; 0x88
 8001830:	f422 3240 	bic.w	r2, r2, #196608	; 0x30000
 8001834:	432a      	orrs	r2, r5
 8001836:	f8c1 2088 	str.w	r2, [r1, #136]	; 0x88
 800183a:	039e      	lsls	r6, r3, #14
 800183c:	d508      	bpl.n	8001850 <HAL_RCCEx_PeriphCLKConfig+0x188>
 800183e:	495b      	ldr	r1, [pc, #364]	; (80019ac <HAL_RCCEx_PeriphCLKConfig+0x2e4>)
 8001840:	6aa5      	ldr	r5, [r4, #40]	; 0x28
 8001842:	f8d1 209c 	ldr.w	r2, [r1, #156]	; 0x9c
 8001846:	f022 0203 	bic.w	r2, r2, #3
 800184a:	432a      	orrs	r2, r5
 800184c:	f8c1 209c 	str.w	r2, [r1, #156]	; 0x9c
 8001850:	059d      	lsls	r5, r3, #22
 8001852:	d508      	bpl.n	8001866 <HAL_RCCEx_PeriphCLKConfig+0x19e>
 8001854:	4955      	ldr	r1, [pc, #340]	; (80019ac <HAL_RCCEx_PeriphCLKConfig+0x2e4>)
 8001856:	6ae5      	ldr	r5, [r4, #44]	; 0x2c
 8001858:	f8d1 2088 	ldr.w	r2, [r1, #136]	; 0x88
 800185c:	f422 2240 	bic.w	r2, r2, #786432	; 0xc0000
 8001860:	432a      	orrs	r2, r5
 8001862:	f8c1 2088 	str.w	r2, [r1, #136]	; 0x88
 8001866:	0559      	lsls	r1, r3, #21
 8001868:	d50f      	bpl.n	800188a <HAL_RCCEx_PeriphCLKConfig+0x1c2>
 800186a:	4950      	ldr	r1, [pc, #320]	; (80019ac <HAL_RCCEx_PeriphCLKConfig+0x2e4>)
 800186c:	6b25      	ldr	r5, [r4, #48]	; 0x30
 800186e:	f8d1 2088 	ldr.w	r2, [r1, #136]	; 0x88
 8001872:	f422 1240 	bic.w	r2, r2, #3145728	; 0x300000
 8001876:	432a      	orrs	r2, r5
 8001878:	f8c1 2088 	str.w	r2, [r1, #136]	; 0x88
 800187c:	f5b5 1f80 	cmp.w	r5, #1048576	; 0x100000
 8001880:	bf02      	ittt	eq
 8001882:	68ca      	ldreq	r2, [r1, #12]
 8001884:	f442 1280 	orreq.w	r2, r2, #1048576	; 0x100000
 8001888:	60ca      	streq	r2, [r1, #12]
 800188a:	051a      	lsls	r2, r3, #20
 800188c:	d50f      	bpl.n	80018ae <HAL_RCCEx_PeriphCLKConfig+0x1e6>
 800188e:	4947      	ldr	r1, [pc, #284]	; (80019ac <HAL_RCCEx_PeriphCLKConfig+0x2e4>)
 8001890:	6b65      	ldr	r5, [r4, #52]	; 0x34
 8001892:	f8d1 2088 	ldr.w	r2, [r1, #136]	; 0x88
 8001896:	f422 0240 	bic.w	r2, r2, #12582912	; 0xc00000
 800189a:	432a      	orrs	r2, r5
 800189c:	f8c1 2088 	str.w	r2, [r1, #136]	; 0x88
 80018a0:	f5b5 0f80 	cmp.w	r5, #4194304	; 0x400000
 80018a4:	bf02      	ittt	eq
 80018a6:	68ca      	ldreq	r2, [r1, #12]
 80018a8:	f442 1280 	orreq.w	r2, r2, #1048576	; 0x100000
 80018ac:	60ca      	streq	r2, [r1, #12]
 80018ae:	04df      	lsls	r7, r3, #19
 80018b0:	d50f      	bpl.n	80018d2 <HAL_RCCEx_PeriphCLKConfig+0x20a>
 80018b2:	493e      	ldr	r1, [pc, #248]	; (80019ac <HAL_RCCEx_PeriphCLKConfig+0x2e4>)
 80018b4:	6ba5      	ldr	r5, [r4, #56]	; 0x38
 80018b6:	f8d1 2088 	ldr.w	r2, [r1, #136]	; 0x88
 80018ba:	f022 7240 	bic.w	r2, r2, #50331648	; 0x3000000
 80018be:	432a      	orrs	r2, r5
 80018c0:	f8c1 2088 	str.w	r2, [r1, #136]	; 0x88
 80018c4:	f1b5 7f80 	cmp.w	r5, #16777216	; 0x1000000
 80018c8:	bf02      	ittt	eq
 80018ca:	68ca      	ldreq	r2, [r1, #12]
 80018cc:	f442 1280 	orreq.w	r2, r2, #1048576	; 0x100000
 80018d0:	60ca      	streq	r2, [r1, #12]
 80018d2:	049e      	lsls	r6, r3, #18
 80018d4:	d50f      	bpl.n	80018f6 <HAL_RCCEx_PeriphCLKConfig+0x22e>
 80018d6:	4935      	ldr	r1, [pc, #212]	; (80019ac <HAL_RCCEx_PeriphCLKConfig+0x2e4>)
 80018d8:	6be5      	ldr	r5, [r4, #60]	; 0x3c
 80018da:	f8d1 2088 	ldr.w	r2, [r1, #136]	; 0x88
 80018de:	f022 6240 	bic.w	r2, r2, #201326592	; 0xc000000
 80018e2:	432a      	orrs	r2, r5
 80018e4:	f8c1 2088 	str.w	r2, [r1, #136]	; 0x88
 80018e8:	f1b5 6f00 	cmp.w	r5, #134217728	; 0x8000000
 80018ec:	bf02      	ittt	eq
 80018ee:	68ca      	ldreq	r2, [r1, #12]
 80018f0:	f442 1280 	orreq.w	r2, r2, #1048576	; 0x100000
 80018f4:	60ca      	streq	r2, [r1, #12]
 80018f6:	045d      	lsls	r5, r3, #17
 80018f8:	d50f      	bpl.n	800191a <HAL_RCCEx_PeriphCLKConfig+0x252>
 80018fa:	492c      	ldr	r1, [pc, #176]	; (80019ac <HAL_RCCEx_PeriphCLKConfig+0x2e4>)
 80018fc:	6c25      	ldr	r5, [r4, #64]	; 0x40
 80018fe:	f8d1 2088 	ldr.w	r2, [r1, #136]	; 0x88
 8001902:	f022 6240 	bic.w	r2, r2, #201326592	; 0xc000000
 8001906:	432a      	orrs	r2, r5
 8001908:	f8c1 2088 	str.w	r2, [r1, #136]	; 0x88
 800190c:	f1b5 6f00 	cmp.w	r5, #134217728	; 0x8000000
 8001910:	bf02      	ittt	eq
 8001912:	68ca      	ldreq	r2, [r1, #12]
 8001914:	f442 1280 	orreq.w	r2, r2, #1048576	; 0x100000
 8001918:	60ca      	streq	r2, [r1, #12]
 800191a:	0419      	lsls	r1, r3, #16
 800191c:	d50f      	bpl.n	800193e <HAL_RCCEx_PeriphCLKConfig+0x276>
 800191e:	4923      	ldr	r1, [pc, #140]	; (80019ac <HAL_RCCEx_PeriphCLKConfig+0x2e4>)
 8001920:	6c65      	ldr	r5, [r4, #68]	; 0x44
 8001922:	f8d1 2088 	ldr.w	r2, [r1, #136]	; 0x88
 8001926:	f022 5240 	bic.w	r2, r2, #805306368	; 0x30000000
 800192a:	432a      	orrs	r2, r5
 800192c:	f8c1 2088 	str.w	r2, [r1, #136]	; 0x88
 8001930:	f1b5 5f80 	cmp.w	r5, #268435456	; 0x10000000
 8001934:	bf02      	ittt	eq
 8001936:	68ca      	ldreq	r2, [r1, #12]
 8001938:	f442 3280 	orreq.w	r2, r2, #65536	; 0x10000
 800193c:	60ca      	streq	r2, [r1, #12]
 800193e:	03da      	lsls	r2, r3, #15
 8001940:	d50f      	bpl.n	8001962 <HAL_RCCEx_PeriphCLKConfig+0x29a>
 8001942:	491a      	ldr	r1, [pc, #104]	; (80019ac <HAL_RCCEx_PeriphCLKConfig+0x2e4>)
 8001944:	6ca5      	ldr	r5, [r4, #72]	; 0x48
 8001946:	f8d1 2088 	ldr.w	r2, [r1, #136]	; 0x88
 800194a:	f022 4240 	bic.w	r2, r2, #3221225472	; 0xc0000000
 800194e:	432a      	orrs	r2, r5
 8001950:	f8c1 2088 	str.w	r2, [r1, #136]	; 0x88
 8001954:	f1b5 4f80 	cmp.w	r5, #1073741824	; 0x40000000
 8001958:	bf02      	ittt	eq
 800195a:	68ca      	ldreq	r2, [r1, #12]
 800195c:	f442 3280 	orreq.w	r2, r2, #65536	; 0x10000
 8001960:	60ca      	streq	r2, [r1, #12]
 8001962:	035b      	lsls	r3, r3, #13
 8001964:	d50f      	bpl.n	8001986 <HAL_RCCEx_PeriphCLKConfig+0x2be>
 8001966:	4a11      	ldr	r2, [pc, #68]	; (80019ac <HAL_RCCEx_PeriphCLKConfig+0x2e4>)
 8001968:	6ce1      	ldr	r1, [r4, #76]	; 0x4c
 800196a:	f8d2 309c 	ldr.w	r3, [r2, #156]	; 0x9c
 800196e:	f423 1340 	bic.w	r3, r3, #3145728	; 0x300000
 8001972:	430b      	orrs	r3, r1
 8001974:	f5b1 1f00 	cmp.w	r1, #2097152	; 0x200000
 8001978:	f8c2 309c 	str.w	r3, [r2, #156]	; 0x9c
 800197c:	d103      	bne.n	8001986 <HAL_RCCEx_PeriphCLKConfig+0x2be>
 800197e:	68d3      	ldr	r3, [r2, #12]
 8001980:	f443 1380 	orr.w	r3, r3, #1048576	; 0x100000
 8001984:	60d3      	str	r3, [r2, #12]
 8001986:	b002      	add	sp, #8
 8001988:	e8bd 81f0 	ldmia.w	sp!, {r4, r5, r6, r7, r8, pc}
 800198c:	f7fe feea 	bl	8000764 <HAL_GetTick>
 8001990:	f241 3888 	movw	r8, #5000	; 0x1388
 8001994:	4607      	mov	r7, r0
 8001996:	f8d5 3090 	ldr.w	r3, [r5, #144]	; 0x90
 800199a:	079b      	lsls	r3, r3, #30
 800199c:	f53f aed1 	bmi.w	8001742 <HAL_RCCEx_PeriphCLKConfig+0x7a>
 80019a0:	f7fe fee0 	bl	8000764 <HAL_GetTick>
 80019a4:	1bc0      	subs	r0, r0, r7
 80019a6:	4540      	cmp	r0, r8
 80019a8:	d9f5      	bls.n	8001996 <HAL_RCCEx_PeriphCLKConfig+0x2ce>
 80019aa:	e6dc      	b.n	8001766 <HAL_RCCEx_PeriphCLKConfig+0x9e>
 80019ac:	40021000 	.word	0x40021000
 80019b0:	40007000 	.word	0x40007000

080019b4 <__libc_init_array>:
 80019b4:	b570      	push	{r4, r5, r6, lr}
 80019b6:	4e0d      	ldr	r6, [pc, #52]	; (80019ec <__libc_init_array+0x38>)
 80019b8:	4c0d      	ldr	r4, [pc, #52]	; (80019f0 <__libc_init_array+0x3c>)
 80019ba:	1ba4      	subs	r4, r4, r6
 80019bc:	10a4      	asrs	r4, r4, #2
 80019be:	2500      	movs	r5, #0
 80019c0:	42a5      	cmp	r5, r4
 80019c2:	d109      	bne.n	80019d8 <__libc_init_array+0x24>
 80019c4:	4e0b      	ldr	r6, [pc, #44]	; (80019f4 <__libc_init_array+0x40>)
 80019c6:	4c0c      	ldr	r4, [pc, #48]	; (80019f8 <__libc_init_array+0x44>)
 80019c8:	f000 f820 	bl	8001a0c <_init>
 80019cc:	1ba4      	subs	r4, r4, r6
 80019ce:	10a4      	asrs	r4, r4, #2
 80019d0:	2500      	movs	r5, #0
 80019d2:	42a5      	cmp	r5, r4
 80019d4:	d105      	bne.n	80019e2 <__libc_init_array+0x2e>
 80019d6:	bd70      	pop	{r4, r5, r6, pc}
 80019d8:	f856 3025 	ldr.w	r3, [r6, r5, lsl #2]
 80019dc:	4798      	blx	r3
 80019de:	3501      	adds	r5, #1
 80019e0:	e7ee      	b.n	80019c0 <__libc_init_array+0xc>
 80019e2:	f856 3025 	ldr.w	r3, [r6, r5, lsl #2]
 80019e6:	4798      	blx	r3
 80019e8:	3501      	adds	r5, #1
 80019ea:	e7f2      	b.n	80019d2 <__libc_init_array+0x1e>
 80019ec:	08001a58 	.word	0x08001a58
 80019f0:	08001a58 	.word	0x08001a58
 80019f4:	08001a58 	.word	0x08001a58
 80019f8:	08001a5c 	.word	0x08001a5c

080019fc <memset>:
 80019fc:	4402      	add	r2, r0
 80019fe:	4603      	mov	r3, r0
 8001a00:	4293      	cmp	r3, r2
 8001a02:	d100      	bne.n	8001a06 <memset+0xa>
 8001a04:	4770      	bx	lr
 8001a06:	f803 1b01 	strb.w	r1, [r3], #1
 8001a0a:	e7f9      	b.n	8001a00 <memset+0x4>

08001a0c <_init>:
 8001a0c:	b5f8      	push	{r3, r4, r5, r6, r7, lr}
 8001a0e:	bf00      	nop
 8001a10:	bcf8      	pop	{r3, r4, r5, r6, r7}
 8001a12:	bc08      	pop	{r3}
 8001a14:	469e      	mov	lr, r3
 8001a16:	4770      	bx	lr

08001a18 <_fini>:
 8001a18:	b5f8      	push	{r3, r4, r5, r6, r7, lr}
 8001a1a:	bf00      	nop
 8001a1c:	bcf8      	pop	{r3, r4, r5, r6, r7}
 8001a1e:	bc08      	pop	{r3}
 8001a20:	469e      	mov	lr, r3
 8001a22:	4770      	bx	lr
